(lp0
I0
aF-0.20031070709228516
aF0.29968851804733276
aF0.7959899306297302
aF1.2921099662780762
aF1.7882256507873535
aF2.284337043762207
aF2.7774367332458496
aF3.2537670135498047
aF-0.20000000298023224
aF-0.20000000298023224
aF-0.20000000298023224
aF-0.20000000298023224
aF-0.20000000298023224
aF-0.20000000298023224
aF-0.20000000298023224
aF-0.20000000298023224
aF-0.20000000298023224
aF-0.20000000298023224
aF-0.20000000298023224
aF-0.20000000298023224
aF-0.20000000298023224
aF-0.20000000298023224
aF-0.20000000298023224
aF-0.20000000298023224
aF-0.20000000298023224
aF-0.20000000298023224
aF-0.20000000298023224
aF-0.20000000298023224
aF-0.20000000298023224
aF-0.20000000298023224
aF-0.20000000298023224
aF-0.20000000298023224
aF-0.20000000298023224
aF-0.20000000298023224
aF-0.20000000298023224
aF-0.20000000298023224
aF-0.20000000298023224
aF-0.20000000298023224
aF-0.20000000298023224
aF-0.20000000298023224
aF-0.20000000298023224
aF-0.20000000298023224
aF-0.20000000298023224
aF-0.20000000298023224
aF-0.20000000298023224
aF-0.20000000298023224
aF-0.20000000298023224
aF-0.20000000298023224
aF-0.20000000298023224
aF-0.20000000298023224
aF-0.20000000298023224
aF-0.20000000298023224
aF-0.20000000298023224
aF-0.20000000298023224
aF-0.20000000298023224
aF-0.20000000298023224
aF-0.20000000298023224
aF-0.20000000298023224
aF-0.20000000298023224
aF-0.20000000298023224
aF-0.20000000298023224
aF-0.20000000298023224
aF-0.20000000298023224
aF-0.20000000298023224
aF-0.20000000298023224
aF-0.20000000298023224
aF-0.20000000298023224
aF-0.20000000298023224
aF-0.20000000298023224
aF-0.20000000298023224
aF-0.20000000298023224
aF-0.20000000298023224
aF-0.20000000298023224
aF-0.20000000298023224
aF-0.20000000298023224
aF-0.20000000298023224
aF-0.20000000298023224
aF-0.20000000298023224
aF-0.20000000298023224
aF-0.20000000298023224
aF-0.20000000298023224
aF-0.20000000298023224
aF-0.20000000298023224
aF-0.20000000298023224
aF-0.20000000298023224
aF-0.20000000298023224
aF-0.20000000298023224
aF-0.20000000298023224
aF-0.20000000298023224
aF-0.20000000298023224
aF-0.20000000298023224
aF-0.20000000298023224
aF-0.20000000298023224
aF-0.20000000298023224
aF-0.20000000298023224
aF-0.20000000298023224
aF-0.20000000298023224
aF-0.20000000298023224
aF-0.20000000298023224
aF-0.20000000298023224
aF-0.20000000298023224
aF-0.20000000298023224
aF-0.20000000298023224
aF-0.20000000298023224
aF-0.20000000298023224
aF-0.20000000298023224
aF-0.20000000298023224
aF-0.20000000298023224
aF-0.20000000298023224
aF-0.20000000298023224
aF-0.20000000298023224
aF-0.20000000298023224
aF-0.20000000298023224
aF-0.20000000298023224
aF-0.20000000298023224
aF-0.20000000298023224
aF-0.20000000298023224
aF-0.20000000298023224
aF-0.20000000298023224
aF-0.20000000298023224
aF-0.20000000298023224
aF-0.20000000298023224
aF-0.20000000298023224
aF-0.20000000298023224
aF-0.20000000298023224
aF-0.20000000298023224
aF-0.20000000298023224
aF-0.20000000298023224
aF-0.20000000298023224
aF-0.20000000298023224
aF-0.20000000298023224
aF-0.20000000298023224
aF-0.20000000298023224
aF-0.20000000298023224
aF-0.20000000298023224
aF-0.20000000298023224
aF-0.20000000298023224
aF-0.20000000298023224
aF-0.20000000298023224
aF-0.20000000298023224
aF-0.20000000298023224
aF-0.20000000298023224
aF-0.20000000298023224
aF-0.20000000298023224
aF-0.20000000298023224
aF-0.20000000298023224
aF-0.20000000298023224
aF-0.20000000298023224
aF-0.20000000298023224
aF-0.20000000298023224
aF-0.20000000298023224
aF-0.20000000298023224
aF-0.20000000298023224
aF-0.20000000298023224
aF-0.20000000298023224
aF-0.20000000298023224
aF-0.20000000298023224
aF-0.20000000298023224
aF-0.20000000298023224
aF-0.20000000298023224
aF-0.20000000298023224
aF-0.20000000298023224
aF-0.20000000298023224
aF-0.20000000298023224
aF-0.20000000298023224
aF-0.20000000298023224
aF-0.20000000298023224
aF-0.20000000298023224
aF-0.20000000298023224
aF-0.20000000298023224
aF-0.20000000298023224
aF-0.20000000298023224
aF-0.20000000298023224
aF-0.20000000298023224
aF-0.20000000298023224
aF-0.20000000298023224
aF-0.20000000298023224
aF-0.20000000298023224
aF-0.20000000298023224
aF-0.20000000298023224
aF-0.20000000298023224
aF-0.20000000298023224
aF-0.20000000298023224
aF-0.20000000298023224
aF-0.20000000298023224
aF-0.20000000298023224
aF-0.20000000298023224
aF-0.20000000298023224
aF-0.20000000298023224
aF-0.20000000298023224
aF-0.20000000298023224
aF-0.20000000298023224
aF-0.20000000298023224
aF-0.20000000298023224
aF-0.20000000298023224
aF-0.20000000298023224
aF-0.20000000298023224
aF-0.20000000298023224
aF-0.20000000298023224
aF-0.20000000298023224
aF-0.20000000298023224
aF-0.20000000298023224
aF-0.20000000298023224
aF-0.20000000298023224
aF-0.20000000298023224
aF-0.20000000298023224
aF-0.20000000298023224
aF-0.20000000298023224
aF-0.20000000298023224
aF-0.20000000298023224
aF-0.20000000298023224
aF-0.20000000298023224
aF-0.20000000298023224
aF-0.20000000298023224
aF-0.20000000298023224
aF-0.20000000298023224
aF-0.20000000298023224
aF-0.20000000298023224
aF-0.20000000298023224
aF-0.20000000298023224
aF-0.20000000298023224
aF-0.20000000298023224
aF-0.20000000298023224
aF-0.20000000298023224
aF-0.20000000298023224
aF-0.20000000298023224
aF-0.20000000298023224
aF-0.20000000298023224
aF-0.20000000298023224
aF-0.20000000298023224
aF-0.20000000298023224
aF-0.20000000298023224
aF-0.20000000298023224
aF-0.20000000298023224
aF-0.20000000298023224
aF-0.20000000298023224
aF-0.20000000298023224
aF-0.20000000298023224
aF-0.20000000298023224
aF-0.20000000298023224
aF-0.20000000298023224
aF-0.20000000298023224
aF-0.20000000298023224
aF-0.20000000298023224
aF-0.20000000298023224
aF-0.20000000298023224
aF-0.20000000298023224
aF-0.20000000298023224
aF-0.20000000298023224
aF-0.20000000298023224
aF-0.20000000298023224
aF-0.20000000298023224
aF-0.20000000298023224
aF-0.20000000298023224
aF-0.20000000298023224
aF-0.20000000298023224
aF-0.20000000298023224
aF-0.20000000298023224
aF-0.20000000298023224
aF-0.20000000298023224
aF-0.20000000298023224
aF-0.20000000298023224
aF-0.20000000298023224
aF-0.20000000298023224
aF-0.20000000298023224
aF-0.20000000298023224
aF-0.20000000298023224
aF-0.20000000298023224
aF-0.20000000298023224
aF-0.20000000298023224
aF-0.20000000298023224
aF-0.20000000298023224
aF-0.20000000298023224
aF-0.20000000298023224
aF-0.20000000298023224
aF-0.20000000298023224
aF-0.20000000298023224
aF-0.20000000298023224
aF-0.20000000298023224
aF-0.20000000298023224
aF-0.20000000298023224
aF-0.20000000298023224
aF-0.20000000298023224
aF-0.20000000298023224
aF-0.20000000298023224
aF-0.20000000298023224
aF-0.20000000298023224
aF-0.20000000298023224
aF-0.20000000298023224
aF-0.20000000298023224
aF-0.20000000298023224
aF-0.20000000298023224
aF-0.20000000298023224
aF-0.20000000298023224
aF-0.20000000298023224
aF-0.20000000298023224
aF-0.20000000298023224
aF-0.20000000298023224
aF-0.20000000298023224
aF-0.20000000298023224
aF-0.20000000298023224
aF-0.20000000298023224
aF-0.20000000298023224
aF-0.20000000298023224
aF-0.20000000298023224
aF-0.20000000298023224
aF-0.20000000298023224
aF-0.20000000298023224
aF-0.20000000298023224
aF-0.20000000298023224
aF-0.20000000298023224
aF-0.20000000298023224
aF-0.20000000298023224
aF-0.20000000298023224
aF-0.20000000298023224
aF-0.20000000298023224
aF-0.20000000298023224
aF-0.20000000298023224
aF2.8929312229156494
aF3.267460823059082
aF3.641815423965454
aF4.015996932983398
aF4.393420696258545
aF4.789909839630127
aF5.208163261413574
aF5.649017810821533
aF6.1163649559021
aF6.612025260925293
aF9.956250190734863
aF10.432859420776367
aF10.874889373779297
aF11.28541088104248
aF11.662978172302246
aF11.98485279083252
aF12.25232219696045
aF12.453679084777832
aF12.608348846435547
aF12.705671310424805
aF15.272004127502441
aF15.252403259277344
aF15.171242713928223
aF15.028033256530762
aF14.822354316711426
aF14.554498672485352
aF14.224363327026367
aF13.821192741394043
aF13.368067741394043
aF12.854180335998535
aF14.03292179107666
aF13.399290084838867
aF12.707792282104492
aF11.956798553466797
aF11.147497177124023
aF10.281634330749512
aF9.358799934387207
aF8.369518280029297
aF7.34434700012207
aF6.2826995849609375
aF6.04583215713501
aF4.914825916290283
aF3.7587926387786865
aF2.5773351192474365
aF1.3709332942962646
aF0.15847653150558472
aF-1.0610076189041138
aF0.2802526652812958
aF-0.9491714835166931
aF0.27683842182159424
aF0.13468991219997406
aF-1.0776519775390625
aF0.27176809310913086
aF-0.9258918762207031
aF0.26842617988586426
aF-0.9177096486091614
aF0.2651139199733734
aF-0.912887692451477
aF0.26183071732521057
aF-0.8939752578735352
aF0.2574710547924042
aF-0.8761972784996033
aF0.25540539622306824
aF-0.8563737273216248
aF0.2522681653499603
aF-0.8380246162414551
aF0.24933302402496338
aF-0.819849967956543
aF0.24598929286003113
aF-0.806483268737793
aF-0.537639319896698
aF0.24152164161205292
aF-0.7766591310501099
aF0.23874638974666595
aF-0.7595024704933167
aF0.23586681485176086
aF-0.7524240016937256
aF0.23301471769809723
aF-0.7461423277854919
aF0.23018664121627808
aF0.11912676692008972
aF-0.8464682698249817
aF0.22598896920681
aF-0.7306562066078186
aF0.2232198864221573
aF-0.21994741261005402
aF0.7204809188842773
aF0.2954710125923157
aF-0.12353240698575974
aF0.7164480686187744
aF1.6311701536178589
aF1.2225185632705688
aF0.8108884692192078
aF0.39662691950798035
aF-0.02051001600921154
aF0.7084761261940002
aF0.2977883815765381
aF-0.10958527028560638
aF0.7045201659202576
aF0.3078076243400574
aF0.9830204248428345
aF0.5969898104667664
aF0.21105420589447021
aF-0.17441502213478088
aF0.6967577338218689
aF0.3170352280139923
aF-0.0569094717502594
aF0.6928063631057739
aF0.32863160967826843
aF-0.03379600867629051
aF0.46993908286094666
aF0.11177002638578415
aF-0.24114903807640076
aF0.6854223012924194
aF0.3427629768848419
aF0.001973816193640232
aF-0.33714237809181213
aF0.6803894639015198
aF0.3442652225494385
aF0.009632300585508347
aF1.5907237529754639
aF1.2563787698745728
aF0.9305083155632019
aF0.6093448996543884
aF0.29298537969589233
aF-0.021333705633878708
aF0.6697870492935181
aF0.35907867550849915
aF0.05070830136537552
aF-0.25475090742111206
aF0.8508164286613464
aF0.5516977906227112
aF0.2549982964992523
aF-0.03217180818319321
aF0.6604333519935608
aF0.3804435133934021
aF0.10889557749032974
aF-0.1605701893568039
aF0.6557877659797668
aF0.3994221091270447
aF1.303807020187378
aF1.0544267892837524
aF0.8104951977729797
aF0.5690974593162537
aF0.33010903000831604
aF0.0926491841673851
aF-0.14323990046977997
aF0.6459009051322937
aF0.41284245252609253
aF0.1809079647064209
aF0.6968367099761963
aF0.4674888551235199
aF0.24164097011089325
aF0.019112862646579742
aF-0.20001979172229767
aF0.6373236179351807
aF0.42644840478897095
aF0.21696634590625763
aF0.01386144757270813
aF-0.18609601259231567
aF0.6886260509490967
aF0.49542492628097534
aF0.30733612179756165
aF0.12425106018781662
aF-0.05741792544722557
aF0.6270149946212769
aF0.4578011631965637
aF0.29291972517967224
aF0.1314384937286377
aF-0.02746291644871235
aF1.6773161888122559
aF1.5243899822235107
aF1.3747797012329102
aF1.2291678190231323
aF1.0876052379608154
aF0.9443393349647522
aF0.7990624308586121
aF1.147847056388855
aF1.4981870651245117
aF1.846625566482544
aF3.993467330932617
aF4.334187984466553
aF4.658552646636963
aF4.967226982116699
aF5.259759902954102
aF5.531269550323486
aF5.782130718231201
aF6.005929470062256
aF6.212070941925049
aF6.3925347328186035
aF8.442667007446289
aF8.567179679870605
aF8.654878616333008
aF8.704141616821289
aF8.708146095275879
aF8.682144165039062
aF8.617610931396484
aF8.506965637207031
aF8.357715606689453
aF8.179854393005371
aF8.941668510437012
aF8.689553260803223
aF8.398451805114746
aF8.06867504119873
aF7.700282573699951
aF7.297855377197266
aF6.861287593841553
aF6.390903472900391
aF5.891199111938477
aF5.366124153137207
aF5.282009124755859
aF4.7077155113220215
aF4.111818313598633
aF3.498305082321167
aF2.86531138420105
aF2.22145938873291
aF1.5672210454940796
aF0.9030110239982605
aF0.23566098511219025
aF-0.42889371514320374
aF1.0516911745071411
aF0.39312273263931274
aF-0.2630119323730469
aF1.0471086502075195
aF0.39580339193344116
aF-0.2498006671667099
aF1.0414223670959473
aF0.40442758798599243
aF-0.2281041443347931
aF1.035801887512207
aF1.4142612218856812
aF0.8015819191932678
aF0.18568995594978333
aF-0.4263361394405365
aF1.0265566110610962
aF0.41692888736724854
aF-0.1939689964056015
aF1.0210494995117188
aF0.4180505871772766
aF-0.18271717429161072
aF-0.13627566397190094
aF1.013763666152954
aF0.42708876729011536
aF-0.15557055175304413
aF1.0083729028701782
aF0.44012805819511414
aF-0.1257413625717163
aF1.0028672218322754
aF0.44118350744247437
aF-0.11842031031847
aF0.15793786942958832
aF-0.3959856629371643
aF0.994246780872345
aF0.451776385307312
aF-0.08306542783975601
aF0.9890562295913696
aF0.46748486161231995
aF-0.04942645505070686
aF0.9839295744895935
aF0.47995680570602417
aF0.7047165632247925
aF0.21420636773109436
aF-0.27320200204849243
aF0.9755386114120483
aF0.4946407079696655
aF0.015609946101903915
aF-0.4615863263607025
aF0.9689193964004517
aF0.49524253606796265
aF0.5233240723609924
aF1.4463238716125488
aF1.4783744812011719
aF1.514438271522522
aF1.554366111755371
aF1.5982201099395752
aF1.6376289129257202
aF1.6792291402816772
aF1.7160367965698242
aF1.7545222043991089
aF1.7877161502838135
aF2.7132816314697266
aF2.7411208152770996
aF2.7646889686584473
aF2.7812938690185547
aF2.7864537239074707
aF2.788527011871338
aF2.7803289890289307
aF2.766157627105713
aF2.746145248413086
aF2.7188684940338135
aF3.7466766834259033
aF3.703583002090454
aF3.648305892944336
aF3.5810956954956055
aF3.5018181800842285
aF3.4112696647644043
aF3.3095438480377197
aF3.1918387413024902
aF3.0661768913269043
aF2.931386709213257
aF3.682910919189453
aF3.529482126235962
aF3.367231607437134
aF3.193650722503662
aF3.0060503482818604
aF2.8096845149993896
aF2.608102798461914
aF2.3942058086395264
aF2.1787798404693604
aF1.9585051536560059
aF2.3547534942626953
aF2.1255433559417725
aF1.8938709497451782
aF1.6564691066741943
aF1.4197354316711426
aF1.182050108909607
aF0.9400762915611267
aF0.7001796364784241
aF0.4624503552913666
aF0.2283761203289032
aF-0.07851505279541016
aF1.3761545419692993
aF1.1563979387283325
aF0.9426777362823486
aF0.7350510954856873
aF0.5302248001098633
aF0.32799971103668213
aF0.12821263074874878
aF-0.06709317117929459
aF1.3619252443313599
aF1.9448378086090088
aF1.7669426202774048
aF1.589160442352295
aF1.4117382764816284
aF1.2344472408294678
aF1.0537244081497192
aF0.876196026802063
aF0.695216953754425
aF0.5157678127288818
aF0.3431774377822876
aF0.7977332472801208
aF0.6318605542182922
aF0.4688710868358612
aF0.30877482891082764
aF0.15153349936008453
aF8.032078039832413e-05
aF-0.14911077916622162
aF1.330979585647583
aF1.1938539743423462
aF1.0537264347076416
aF1.9906777143478394
aF1.8508356809616089
aF1.715819001197815
aF1.5821512937545776
aF1.446480393409729
aF1.313589334487915
aF1.1801791191101074
aF1.042759656906128
aF0.9091529846191406
aF0.776885449886322
aF1.4227482080459595
aF1.7892340421676636
aF2.155332326889038
aF2.524230718612671
aF2.888585329055786
aF3.2507781982421875
aF3.6041765213012695
aF3.950294256210327
aF4.290823459625244
aF4.618360996246338
aF5.832261562347412
aF6.132693767547607
aF6.41425895690918
aF6.679535388946533
aF6.930805206298828
aF7.156355381011963
aF7.355794429779053
aF7.521746635437012
aF7.6658148765563965
aF7.779486656188965
aF8.558130264282227
aF8.603001594543457
aF8.624149322509766
aF8.613960266113281
aF8.572504043579102
aF8.495865821838379
aF8.384204864501953
aF8.23747730255127
aF8.056933403015137
aF7.8420305252075195
aF8.008831024169922
aF7.730318546295166
aF7.421263694763184
aF7.081693649291992
aF6.711794853210449
aF6.316845893859863
aF5.895378112792969
aF5.4513702392578125
aF4.986397743225098
aF4.503410816192627
aF4.349503040313721
aF3.8318727016448975
aF3.299812078475952
aF2.7580697536468506
aF2.204355478286743
aF1.643022060394287
aF1.0765397548675537
aF0.5099762678146362
aF-0.057209935039281845
aF1.7091137170791626
aF1.4057655334472656
aF0.8626790046691895
aF0.32238802313804626
aF-0.21495658159255981
aF1.6966235637664795
aF1.1685293912887573
aF0.6548112630844116
aF0.15187953412532806
aF-0.3413618206977844
aF1.6848546266555786
aF1.2436132431030273
aF0.772443950176239
aF0.30399543046951294
aF-0.15756317973136902
aF1.6728688478469849
aF1.222150444984436
aF0.7831960320472717
aF0.3524976670742035
aF-0.07126453518867493
aF1.6615787744522095
aF1.4068962335586548
aF1.00413179397583
aF0.6054308414459229
aF0.20769397914409637
aF-0.19265609979629517
aF1.6480334997177124
aF1.270706057548523
aF0.9033217430114746
aF0.5425372123718262
aF0.18633140623569489
aF0.08574682474136353
aF-0.2611358165740967
aF1.632388949394226
aF1.2990409135818481
aF0.9757043719291687
aF0.6550750732421875
aF0.3368532061576843
aF0.01779322139918804
aF-0.2927215099334717
aF1.6175676584243774
aF1.7948166131973267
aF1.503669261932373
aF1.2152189016342163
aF1.426513910293579
aF1.6372286081314087
aF1.8492209911346436
aF2.059039831161499
aF2.2703728675842285
aF2.4839038848876953
aF2.6945674419403076
aF3.3846020698547363
aF3.5881173610687256
aF3.782888412475586
aF3.969266176223755
aF4.145191192626953
aF4.3068647384643555
aF4.462104797363281
aF4.605940341949463
aF4.736415863037109
aF4.852455139160156
aF5.287281036376953
aF5.37409782409668
aF5.445239543914795
aF5.498453617095947
aF5.533016204833984
aF5.552394866943359
aF5.55545711517334
aF5.539920806884766
aF5.505707740783691
aF5.4528021812438965
aF5.803399562835693
aF5.712935924530029
aF5.602630615234375
aF5.472611427307129
aF5.322900772094727
aF5.155245780944824
aF4.967398166656494
aF4.758162021636963
aF4.539161205291748
aF4.305923938751221
aF3.21142315864563
aF2.9507057666778564
aF2.675752878189087
aF2.3916704654693604
aF2.092113971710205
aF1.7914155721664429
aF1.4915310144424438
aF1.1893317699432373
aF0.8893386125564575
aF0.5932678580284119
aF0.2891731560230255
aF-0.001702936366200447
aF1.9966464042663574
aF1.7235207557678223
aF1.4545092582702637
aF1.1896382570266724
aF0.9231940507888794
aF0.6579779982566833
aF0.3966851830482483
aF0.1454073190689087
aF0.2813219428062439
aF0.04340890049934387
aF-0.1853754222393036
aF1.9697957038879395
aF1.7568416595458984
aF1.546482801437378
aF1.3362393379211426
aF1.1223907470703125
aF0.9139280915260315
aF0.708999752998352
aF0.6444950699806213
aF0.4478243589401245
aF0.2571140229701996
aF0.06978265196084976
aF-0.11285170167684555
aF1.9414864778518677
aF1.7818177938461304
aF1.6320092678070068
aF1.487342119216919
aF1.3406224250793457
aF1.3749349117279053
aF1.2341121435165405
aF1.0957140922546387
aF0.9596765041351318
aF0.8260307908058167
aF0.6931498646736145
aF0.5679833889007568
aF0.44789496064186096
aF0.33275601267814636
aF0.22428475320339203
aF0.2816590964794159
aF0.18688246607780457
aF0.09616509824991226
aF0.016895977780222893
aF-0.054664868861436844
aF2.3966081142425537
aF2.8423871994018555
aF3.2967867851257324
aF3.751312494277954
aF4.1984124183654785
aF4.954933166503906
aF5.38251256942749
aF5.795938014984131
aF6.193452835083008
aF6.574782371520996
aF6.933682918548584
aF7.270583629608154
aF7.578875541687012
aF7.866279602050781
aF8.126461029052734
aF8.704362869262695
aF8.904749870300293
aF9.063763618469238
aF9.196805953979492
aF9.295710563659668
aF9.358269691467285
aF9.384591102600098
aF9.37470817565918
aF9.32822322845459
aF9.244922637939453
aF9.320287704467773
aF9.162672996520996
aF8.970459938049316
aF8.742576599121094
aF8.479182243347168
aF8.182709693908691
aF7.852062225341797
aF7.483633041381836
aF7.0924859046936035
aF6.67510986328125
aF5.810581684112549
aF5.330649375915527
aF4.837782382965088
aF4.325132846832275
aF3.7909669876098633
aF3.247310161590576
aF2.693565845489502
aF2.1302669048309326
aF1.5642927885055542
aF0.999507486820221
aF0.06268039345741272
aF-0.49753785133361816
aF2.274052143096924
aF1.7245157957077026
aF1.1858437061309814
aF0.6509199738502502
aF0.1196189895272255
aF-0.41101670265197754
aF2.2560272216796875
aF1.7508227825164795
aF0.7385991811752319
aF0.2582170367240906
aF-0.219220370054245
aF2.241318702697754
aF1.7701911926269531
aF1.2997437715530396
aF0.8298746943473816
aF0.3604688346385956
aF-0.10366765409708023
aF2.223893165588379
aF1.3581361770629883
aF0.9214706420898438
aF0.4848814308643341
aF0.048989295959472656
aF-0.38659247756004333
aF2.207035541534424
aF1.7926515340805054
aF1.3877010345458984
aF0.9921380281448364
aF0.601125955581665
aF0.13528861105442047
aF-0.24638552963733673
aF2.187181234359741
aF1.821810245513916
aF1.464550495147705
aF1.1114230155944824
aF0.7594452500343323
aF0.411121666431427
aF0.07214134931564331
aF-0.2581244111061096
aF2.163478136062622
aF1.851719856262207
aF1.5505632162094116
aF1.2613879442214966
aF0.9858130216598511
aF0.714508056640625
aF0.4478285610675812
aF0.6827329993247986
aF0.9259907603263855
aF1.176242470741272
aF1.2853152751922607
aF1.5489962100982666
aF1.813855528831482
aF2.0854315757751465
aF2.360889196395874
aF2.636139392852783
aF2.911388635635376
aF3.1864547729492188
aF3.4579062461853027
aF3.723801374435425
aF3.83813214302063
aF4.091709613800049
aF4.333477973937988
aF4.569118976593018
aF4.795785903930664
aF5.009796142578125
aF5.208858013153076
aF5.397916793823242
aF5.57002067565918
aF5.727909088134766
aF5.0518364906311035
aF5.176974296569824
aF5.2874226570129395
aF5.377777576446533
aF5.458837032318115
aF5.523453712463379
aF5.571579933166504
aF5.6031880378723145
aF5.617920875549316
aF5.615530490875244
aF5.3208818435668945
aF5.28436803817749
aF5.23081636428833
aF5.160287857055664
aF5.0671892166137695
aF4.964954853057861
aF4.848094940185547
aF4.716750144958496
aF4.56959342956543
aF4.412764549255371
aF4.214677810668945
aF4.034328460693359
aF3.844510793685913
aF3.6451399326324463
aF3.431748867034912
aF3.213291883468628
aF2.9910202026367188
aF2.762220621109009
aF2.5292179584503174
aF2.2940351963043213
aF1.4995626211166382
aF1.2605985403060913
aF1.0187675952911377
aF0.777201771736145
aF0.5391519665718079
aF0.3090856671333313
aF0.08655831217765808
aF-0.12814566493034363
aF2.479128360748291
aF2.287214756011963
aF1.7912640571594238
aF1.6204026937484741
aF1.4461088180541992
aF1.2754720449447632
aF1.104749321937561
aF0.9385483264923096
aF0.7771188616752625
aF0.6216354370117188
aF0.47180765867233276
aF0.33008089661598206
aF2.4432015419006348
aF2.314279317855835
aF2.1949243545532227
aF2.088839292526245
aF1.9922082424163818
aF1.8960654735565186
aF1.800848126411438
aF1.702955961227417
aF1.6099014282226562
aF1.5157763957977295
aF1.405452013015747
aF1.3197468519210815
aF1.2344424724578857
aF1.1563889980316162
aF1.0821326971054077
aF1.009238600730896
aF0.9462305903434753
aF0.891029417514801
aF0.8370118141174316
aF1.2901512384414673
aF1.6741397380828857
aF2.137300491333008
aF2.602540969848633
aF3.0666921138763428
aF3.536391258239746
aF4.001842498779297
aF4.462728023529053
aF4.914801120758057
aF5.358724117279053
aF5.791219234466553
aF6.103121757507324
aF6.506368637084961
aF6.891088485717773
aF7.257552146911621
aF7.605662822723389
aF7.928779602050781
aF8.226651191711426
aF8.492202758789062
aF8.735990524291992
aF8.948444366455078
aF8.899638175964355
aF9.041047096252441
aF9.148990631103516
aF9.23160457611084
aF9.280964851379395
aF9.294526100158691
aF9.274946212768555
aF9.212981224060059
aF9.123720169067383
aF9.001744270324707
aF8.297450065612793
aF8.10689640045166
aF7.88515567779541
aF7.629632949829102
aF7.335615634918213
aF7.021711826324463
aF6.684055328369141
aF6.321298122406006
aF5.9373016357421875
aF5.535120010375977
aF4.405973434448242
aF3.968510866165161
aF3.5201897621154785
aF3.06577730178833
aF2.6029675006866455
aF2.1386044025421143
aF1.6723027229309082
aF1.204344391822815
aF0.7405077815055847
aF0.2840529680252075
aF2.7377023696899414
aF2.295186758041382
aF1.8523235321044922
aF1.4063724279403687
aF0.9635089635848999
aF0.5265345573425293
aF0.09575922787189484
aF-0.3285839259624481
aF2.7131409645080566
aF2.3137009143829346
aF1.2046366930007935
aF0.830005943775177
aF0.4600454568862915
aF0.09215906262397766
aF-0.2741929292678833
aF2.6901679039001465
aF2.34472918510437
aF2.0158510208129883
aF1.694610834121704
aF1.3764994144439697
aF0.1722123622894287
aF-0.1392855942249298
aF2.668046236038208
aF2.3683130741119385
aF2.072042942047119
aF1.7761588096618652
aF1.4846638441085815
aF1.1908509731292725
aF0.9039728045463562
aF0.6235839128494263
aF2.6406664848327637
aF2.374206781387329
aF2.117220878601074
aF1.8657268285751343
aF1.625442385673523
aF1.3907105922698975
aF1.1592614650726318
aF0.9279720187187195
aF0.7049714922904968
aF0.489746630191803
aF2.6106414794921875
aF2.9078238010406494
aF3.203960657119751
aF3.496190071105957
aF3.7906076908111572
aF4.079951763153076
aF4.364041328430176
aF4.641606330871582
aF4.91184663772583
aF5.171070098876953
aF4.025483131408691
aF4.259908199310303
aF4.489234447479248
aF4.710433006286621
aF4.9236602783203125
aF5.124849796295166
aF5.313809394836426
aF5.490392684936523
aF5.652843952178955
aF5.800216197967529
aF5.578097343444824
aF5.695215225219727
aF5.796832084655762
aF5.883033752441406
aF5.948436260223389
aF6.002524375915527
aF6.039865493774414
aF6.060452461242676
aF6.061563014984131
aF6.047371864318848
aF5.514544486999512
aF5.463235378265381
aF5.396841526031494
aF5.310959339141846
aF5.204444885253906
aF5.087400913238525
aF4.959225654602051
aF4.817687034606934
aF4.6643242835998535
aF4.497493743896484
aF3.330124855041504
aF3.1456286907196045
aF2.958185911178589
aF2.7672696113586426
aF2.569500684738159
aF2.374831438064575
aF2.179683208465576
aF1.9808721542358398
aF1.7872166633605957
aF1.5970035791397095
aF0.670272171497345
aF0.4881468713283539
aF0.31633812189102173
aF0.15050023794174194
aF-0.001504568732343614
aF2.9357097148895264
aF2.8098671436309814
aF2.6972134113311768
aF2.590425968170166
aF2.4803566932678223
aF1.3329323530197144
aF1.2256072759628296
aF1.1155295372009277
aF1.0092213153839111
aF0.9034243226051331
aF0.8055816888809204
aF0.7152646780014038
aF0.630608856678009
aF0.5568853616714478
aF0.49275079369544983
aF0.05204388126730919
aF0.007188710384070873
aF-0.03130410611629486
aF2.878124475479126
aF2.863680124282837
aF2.849541187286377
aF2.8305840492248535
aF2.809722423553467
aF2.790517568588257
aF2.7661030292510986
aF2.222494602203369
aF2.195054531097412
aF2.1692819595336914
aF2.1419992446899414
aF2.113208055496216
aF2.086066484451294
aF2.057046413421631
aF2.033278703689575
aF2.0110630989074707
aF1.9875620603561401
aF1.4594255685806274
aF1.4442429542541504
aF1.434029221534729
aF1.9286282062530518
aF2.4281115531921387
aF2.9280216693878174
aF3.4248549938201904
aF3.9216232299804688
aF4.417146682739258
aF4.905324459075928
aF5.2623772621154785
aF5.73198938369751
aF6.191606044769287
aF6.638928413391113
aF7.073793888092041
aF7.485482692718506
aF7.874410152435303
aF8.240190505981445
aF8.579211235046387
aF8.889532089233398
aF8.675165176391602
aF8.927685737609863
aF9.149325370788574
aF9.338913917541504
aF9.499361038208008
aF9.62629222869873
aF9.719677925109863
aF9.772798538208008
aF9.798030853271484
aF9.787812232971191
aF8.953927993774414
aF8.873774528503418
aF8.762735366821289
aF8.620637893676758
aF8.447758674621582
aF8.246533393859863
aF8.017170906066895
aF7.75271463394165
aF7.469748020172119
aF7.160632133483887
aF5.587179183959961
aF5.232439994812012
aF4.856749057769775
aF4.458054542541504
aF4.038517475128174
aF3.613913059234619
aF3.181551218032837
aF2.7378246784210205
aF2.2965662479400635
aF1.8532744646072388
aF0.4430605173110962
aF0.006793562788516283
aF-0.4233309030532837
aF3.146048069000244
aF2.7276227474212646
aF2.3109853267669678
aF1.8960003852844238
aF1.4824633598327637
aF1.0735174417495728
aF0.6720097064971924
aF3.1172120571136475
aF2.7293946743011475
aF2.3374032974243164
aF1.948199987411499
aF1.5582373142242432
aF1.1729717254638672
aF0.7925276160240173
aF0.41711413860321045
aF0.04750307276844978
aF-0.3057284355163574
aF3.0800867080688477
aF2.752553939819336
aF2.4413015842437744
aF2.145010471343994
aF1.8615245819091797
aF1.5882400274276733
aF1.320411205291748
aF1.05500066280365
aF0.7994512915611267
aF0.54888516664505
aF3.044010639190674
aF2.817561149597168
aF2.6001346111297607
aF2.3938474655151367
aF2.198744058609009
aF2.0063412189483643
aF1.8161596059799194
aF1.6278001070022583
aF1.4431126117706299
aF1.261367917060852
aF3.0107991695404053
aF2.8406739234924316
aF2.6800737380981445
aF2.526674270629883
aF2.380507707595825
aF2.733039379119873
aF3.0907371044158936
aF3.449968099594116
aF3.8078911304473877
aF4.16206169128418
aF3.728074550628662
aF4.0706939697265625
aF4.408570766448975
aF4.739065647125244
aF5.062065601348877
aF5.370894432067871
aF5.670533657073975
aF5.958256244659424
aF6.22945499420166
aF6.486690044403076
aF6.088551044464111
aF6.310372352600098
aF6.51539945602417
aF6.701673984527588
aF6.869161605834961
aF7.016174793243408
aF7.142697811126709
aF7.248721122741699
aF7.333123683929443
aF7.395310878753662
aF6.803557395935059
aF6.821221351623535
aF6.816074848175049
aF6.786336421966553
aF6.735843181610107
aF6.665561199188232
aF6.575705528259277
aF6.460514068603516
aF6.332988739013672
aF6.187805652618408
aF4.219193935394287
aF4.042079925537109
aF3.8589470386505127
aF3.6693241596221924
aF3.4736263751983643
aF3.274656295776367
aF3.0722367763519287
aF2.866485834121704
aF2.656230926513672
aF2.4498305320739746
aF1.1140949726104736
aF0.9059642553329468
aF0.7040607333183289
aF0.5048215389251709
aF0.30830562114715576
aF0.12435558438301086
aF-0.04760408028960228
aF3.3105971813201904
aF3.1547157764434814
aF2.9975039958953857
aF1.911598563194275
aF1.7519805431365967
aF1.5942037105560303
aF1.4447872638702393
aF1.3004642724990845
aF1.1603316068649292
aF1.0318272113800049
aF0.9092528223991394
aF0.7979943752288818
aF0.6965872049331665
aF3.2612993717193604
aF3.179844617843628
aF3.1092379093170166
aF3.0455052852630615
aF2.996361255645752
aF2.9473726749420166
aF2.8947501182556152
aF2.8410539627075195
aF2.7901041507720947
aF2.7389044761657715
aF1.8097366094589233
aF1.7583616971969604
aF1.7073023319244385
aF1.6586425304412842
aF1.6086673736572266
aF1.5632814168930054
aF1.5251532793045044
aF1.4888272285461426
aF1.4651730060577393
aF1.441518783569336
aF0.5857470631599426
aF0.573532223701477
aF0.5701385736465454
aF0.573197066783905
aF0.5826776623725891
aF0.6026207208633423
aF0.6292064785957336
aF1.1685431003570557
aF1.718402624130249
aF2.2759222984313965
aF1.825384259223938
aF2.396364688873291
aF2.9691154956817627
aF3.543858051300049
aF4.120370864868164
aF4.688990116119385
aF5.257121562957764
aF5.816760063171387
aF6.368653297424316
aF6.904909133911133
aF6.8347883224487305
aF7.335701942443848
aF7.81715202331543
aF8.277450561523438
aF8.71448040008545
aF9.123114585876465
aF9.501958847045898
aF9.850728988647461
aF10.165956497192383
aF10.445777893066406
aF9.838016510009766
aF10.046236038208008
aF10.216178894042969
aF10.339527130126953
aF10.43350887298584
aF10.488704681396484
aF10.507287979125977
aF10.488386154174805
aF10.431994438171387
aF10.338123321533203
aF8.913338661193848
aF8.745112419128418
aF8.540569305419922
aF8.299806594848633
aF8.022982597351074
aF7.719544410705566
aF7.390071392059326
aF7.028286457061768
aF6.651237487792969
aF6.253014087677002
aF4.579372406005859
aF4.144280433654785
aF3.696760654449463
aF3.234365701675415
aF2.7572803497314453
aF2.2808563709259033
aF1.804280400276184
aF1.3250703811645508
aF0.8544929623603821
aF0.39372727274894714
aF3.4710965156555176
aF3.0315158367156982
aF2.606660842895508
aF2.1962363719940186
aF1.796275019645691
aF1.4056898355484009
aF1.0173097848892212
aF0.6352709531784058
aF0.2649272084236145
aF-0.09263552725315094
aF3.431089401245117
aF3.096949338912964
aF2.761141538619995
aF2.4246177673339844
aF2.086803913116455
aF1.752636194229126
aF1.4219809770584106
aF1.0923347473144531
aF0.7693691253662109
aF0.46034491062164307
aF3.391301155090332
aF3.099266290664673
aF2.8207340240478516
aF2.5580430030822754
aF2.309957265853882
aF2.0654804706573486
aF1.8240635395050049
aF1.5823731422424316
aF1.3485372066497803
aF1.1182818412780762
aF-0.16192544996738434
aF3.352342367172241
aF3.1580610275268555
aF2.9794154167175293
aF2.8166794776916504
aF2.65618896484375
aF2.4971683025360107
aF2.3389892578125
aF2.182936191558838
aF2.529895067214966
aF-0.20000000298023224
aF-0.20000000298023224
aF-0.20000000298023224
aF-0.20000000298023224
aF-0.20000000298023224
aF-0.20000000298023224
aF-0.20000000298023224
aF-0.20000000298023224
aF-0.20000000298023224
aF-0.20000000298023224
aF-0.20000000298023224
aF-0.20000000298023224
aF-0.20000000298023224
aF-0.20000000298023224
aF-0.20000000298023224
aF-0.20000000298023224
aF-0.20000000298023224
aF-0.20000000298023224
aF-0.20000000298023224
aF-0.20000000298023224
aF-0.20000000298023224
aF-0.20000000298023224
aF-0.20000000298023224
aF-0.20000000298023224
aF-0.20000000298023224
aF-0.20000000298023224
aF-0.20000000298023224
aF-0.20000000298023224
aF-0.20000000298023224
aF-0.20000000298023224
aF-0.20000000298023224
aF-0.20000000298023224
aF-0.20000000298023224
aF-0.20000000298023224
aF-0.20000000298023224
aF-0.20000000298023224
aF-0.20000000298023224
aF-0.20000000298023224
aF-0.20000000298023224
aF-0.20000000298023224
aF-0.20000000298023224
aF-0.20000000298023224
aF-0.20000000298023224
aF-0.20000000298023224
aF-0.20000000298023224
aF-0.20000000298023224
aF-0.20000000298023224
aF-0.20000000298023224
aF-0.20000000298023224
aF-0.20000000298023224
aF-0.20000000298023224
aF-0.20000000298023224
aF-0.20000000298023224
aF-0.20000000298023224
aF-0.20000000298023224
aF-0.20000000298023224
aF-0.20000000298023224
aF-0.20000000298023224
aF-0.20000000298023224
aF-0.20000000298023224
aF-0.20000000298023224
aF-0.20000000298023224
aF-0.20000000298023224
aF-0.20000000298023224
aF-0.20000000298023224
aF-0.20000000298023224
aF-0.20000000298023224
aF-0.20000000298023224
aF-0.20000000298023224
aF-0.20000000298023224
aF-0.20000000298023224
aF-0.20000000298023224
aF-0.20000000298023224
aF-0.20000000298023224
aF-0.20000000298023224
aF-0.20000000298023224
aF-0.20000000298023224
aF-0.20000000298023224
aF-0.20000000298023224
aF-0.20000000298023224
aF-0.20000000298023224
aF-0.20000000298023224
aF-0.20000000298023224
aF-0.20000000298023224
aF-0.20000000298023224
aF-0.20000000298023224
aF-0.20000000298023224
aF-0.20000000298023224
aF-0.20000000298023224
aF-0.20000000298023224
aF-0.20000000298023224
aF-0.20000000298023224
aF-0.20000000298023224
aF-0.20000000298023224
aF-0.20000000298023224
aF-0.20000000298023224
aF-0.20000000298023224
aF-0.20000000298023224
aF-0.20000000298023224
aF-0.20000000298023224
aF-0.20000000298023224
aF-0.20000000298023224
aF-0.20000000298023224
aF-0.20000000298023224
aF-0.20000000298023224
aF-0.20000000298023224
aF-0.20000000298023224
aF-0.20000000298023224
aF-0.20000000298023224
aF-0.20000000298023224
aF-0.20000000298023224
aF-0.20000000298023224
aF-0.20000000298023224
aF-0.20000000298023224
aF-0.20000000298023224
aF-0.20000000298023224
aF-0.20000000298023224
aF-0.20000000298023224
aF-0.20000000298023224
aF-0.20000000298023224
aF-0.20000000298023224
aF-0.20000000298023224
aF-0.20000000298023224
aF-0.20000000298023224
aF-0.20000000298023224
aF-0.20000000298023224
aF-0.20000000298023224
aF-0.20000000298023224
aF-0.20000000298023224
aF-0.20000000298023224
aF-0.20000000298023224
aF-0.20000000298023224
aF-0.20000000298023224
aF-0.20000000298023224
aF-0.20000000298023224
aF-0.20000000298023224
aF-0.20000000298023224
aF-0.20000000298023224
aF-0.20000000298023224
aF-0.20000000298023224
aF-0.20000000298023224
aF-0.20000000298023224
aF-0.20000000298023224
aF-0.20000000298023224
aF-0.20000000298023224
aF-0.20000000298023224
aF-0.20000000298023224
aF-0.20000000298023224
aF-0.20000000298023224
aF-0.20000000298023224
aF-0.20000000298023224
aF-0.20000000298023224
aF-0.20000000298023224
aF-0.20000000298023224
aF-0.20000000298023224
aF-0.20000000298023224
aF-0.20000000298023224
aF-0.20000000298023224
aF-0.20000000298023224
aF-0.20000000298023224
aF-0.20000000298023224
aF-0.20000000298023224
aF-0.20000000298023224
aF-0.20000000298023224
aF-0.20000000298023224
aF-0.20000000298023224
aF-0.20000000298023224
aF-0.20000000298023224
aF-0.20000000298023224
aF-0.20000000298023224
aF3.251132011413574
aF5.4282097816467285
aF7.612104415893555
aF9.80278205871582
aF11.99245548248291
aF14.145841598510742
aF16.257251739501953
aF18.316709518432617
aF20.316974639892578
aF22.2674560546875
aF25.111162185668945
aF26.924442291259766
aF28.668996810913086
aF30.33721160888672
aF31.931678771972656
aF33.439029693603516
aF34.86118698120117
aF36.19584655761719
aF37.44135284423828
aF38.59755325317383
aF40.322357177734375
aF41.30467224121094
aF42.18714904785156
aF42.97665786743164
aF43.67292404174805
aF44.27594757080078
aF44.78569412231445
aF45.20236587524414
aF45.52531051635742
aF45.755043029785156
aF45.499820709228516
aF45.55459213256836
aF45.49897003173828
aF45.36967849731445
aF45.13947296142578
aF44.8187255859375
aF44.40732955932617
aF43.898155212402344
aF43.3084602355957
aF42.628875732421875
aF40.74000549316406
aF39.87180709838867
aF38.93099594116211
aF37.88037872314453
aF36.755035400390625
aF35.53183364868164
aF34.20810317993164
aF32.78190231323242
aF31.251523971557617
aF29.626861572265625
aF-0.20000000298023224
aF-0.20000000298023224
aF-0.20000000298023224
aF-0.20000000298023224
aF-0.20000000298023224
aF-0.20000000298023224
aF-0.20000000298023224
aF-0.20000000298023224
aF-0.20000000298023224
aF-0.20000000298023224
aF-0.20000000298023224
aF-0.20000000298023224
aF-0.20000000298023224
aF-0.20000000298023224
aF-0.20000000298023224
aF-0.20000000298023224
aF-0.20000000298023224
aF-0.20000000298023224
aF-0.20000000298023224
aF-0.20000000298023224
aF-0.20000000298023224
aF-0.20000000298023224
aF-0.20000000298023224
aF-0.20000000298023224
aF-0.20000000298023224
aF-0.20000000298023224
aF-0.20000000298023224
aF-0.20000000298023224
aF-0.20000000298023224
aF-0.20000000298023224
aF-0.20000000298023224
aF-0.20000000298023224
aF-0.20000000298023224
aF-0.20000000298023224
aF-0.20000000298023224
aF-0.20000000298023224
aF-0.20000000298023224
aF-0.20000000298023224
aF-0.20000000298023224
aF-0.20000000298023224
aF-0.20000000298023224
aF-0.20000000298023224
aF-0.20000000298023224
aF-0.20000000298023224
aF-0.20000000298023224
aF-0.20000000298023224
aF-0.20000000298023224
aF-0.20000000298023224
aF-0.20000000298023224
aF-0.20000000298023224
aF-0.20000000298023224
aF-0.20000000298023224
aF-0.20000000298023224
aF-0.20000000298023224
aF-0.20000000298023224
aF-0.20000000298023224
aF-0.20000000298023224
aF-0.20000000298023224
aF-0.20000000298023224
aF-0.20000000298023224
aF-0.20000000298023224
aF-0.20000000298023224
aF-0.20000000298023224
aF-0.20000000298023224
aF-0.20000000298023224
aF-0.20000000298023224
aF-0.20000000298023224
aF-0.20000000298023224
aF-0.20000000298023224
aF-0.20000000298023224
aF-0.20000000298023224
aF-0.20000000298023224
aF-0.20000000298023224
aF-0.20000000298023224
aF-0.20000000298023224
aF-0.20000000298023224
aF-0.20000000298023224
aF-0.20000000298023224
aF-0.20000000298023224
aF-0.20000000298023224
aF-0.20000000298023224
aF-0.20000000298023224
aF-0.20000000298023224
aF-0.20000000298023224
aF-0.20000000298023224
aF-0.20000000298023224
aF-0.20000000298023224
aF-0.20000000298023224
aF-0.20000000298023224
aF-0.20000000298023224
aF-0.20000000298023224
aF-0.20000000298023224
aF-0.20000000298023224
aF-0.20000000298023224
aF-0.20000000298023224
aF-0.20000000298023224
aF-0.20000000298023224
aF-0.20000000298023224
aF-0.20000000298023224
aF-0.20000000298023224
aF-0.20000000298023224
aF-0.20000000298023224
aF-0.20000000298023224
aF-0.20000000298023224
aF-0.20000000298023224
aF-0.20000000298023224
aF-0.20000000298023224
aF-0.20000000298023224
aF-0.20000000298023224
aF-0.20000000298023224
aF-0.20000000298023224
aF-0.20000000298023224
aF-0.20000000298023224
aF-0.20000000298023224
aF-0.20000000298023224
aF-0.20000000298023224
aF-0.20000000298023224
aF-0.20000000298023224
aF-0.20000000298023224
aF-0.20000000298023224
aF-0.20000000298023224
aF-0.20000000298023224
aF-0.20000000298023224
aF-0.20000000298023224
aF-0.20000000298023224
aF-0.20000000298023224
aF-0.20000000298023224
aF-0.20000000298023224
aF-0.20000000298023224
aF-0.20000000298023224
aF-0.20000000298023224
aF-0.20000000298023224
aF-0.20000000298023224
aF-0.20000000298023224
aF-0.20000000298023224
aF-0.20000000298023224
aF-0.20000000298023224
aF-0.20000000298023224
aF-0.20000000298023224
aF-0.20000000298023224
aF-0.20000000298023224
aF-0.20000000298023224
aF-0.20000000298023224
aF-0.20000000298023224
aF-0.20000000298023224
aF-0.20000000298023224
aF-0.20000000298023224
aF-0.20000000298023224
aF-0.20000000298023224
aF-0.20000000298023224
aF-0.20000000298023224
aF-0.20000000298023224
aF-0.20000000298023224
aF-0.20000000298023224
aF-0.20000000298023224
aF-0.20000000298023224
aF-0.20000000298023224
aF-0.20000000298023224
aF-0.20000000298023224
aF-0.20000000298023224
aF-0.20000000298023224
aF-0.20000000298023224
aF-0.20000000298023224
aF-0.20000000298023224
aF-0.20000000298023224
aF-0.20000000298023224
aF-0.20000000298023224
aF-0.20000000298023224
aF-0.20000000298023224
aF-0.20000000298023224
aF-0.20000000298023224
aF-0.20000000298023224
aF-0.20000000298023224
aF-0.20000000298023224
aF-0.20000000298023224
aF-0.20000000298023224
aF-0.20000000298023224
aF-0.20000000298023224
aF-0.20000000298023224
aF-0.20000000298023224
aF-0.20000000298023224
aF-0.20000000298023224
aF-0.20000000298023224
aF-0.20000000298023224
aF-0.20000000298023224
aF-0.20000000298023224
aF-0.20000000298023224
aF-0.20000000298023224
aF-0.20000000298023224
aF-0.20000000298023224
aF-0.20000000298023224
aF-0.20000000298023224
aF-0.20000000298023224
aF-0.20000000298023224
aF-0.20000000298023224
aF-0.20000000298023224
aF-0.20000000298023224
aF-0.20000000298023224
aF-0.20000000298023224
aF-0.20000000298023224
aF-0.20000000298023224
aF-0.20000000298023224
aF-0.20000000298023224
aF-0.20000000298023224
aF-0.20000000298023224
aF-0.20000000298023224
aF-0.20000000298023224
aF-0.20000000298023224
aF-0.20000000298023224
aF-0.20000000298023224
aF-0.20000000298023224
aF-0.20000000298023224
aF-0.20000000298023224
aF-0.20000000298023224
aF-0.20000000298023224
aF-0.20000000298023224
aF-0.20000000298023224
aF-0.20000000298023224
aF-0.20000000298023224
aF-0.20000000298023224
aF-0.20000000298023224
aF-0.20000000298023224
aF-0.20000000298023224
aF-0.20000000298023224
aF-0.20000000298023224
aF-0.20000000298023224
aF-0.20000000298023224
aF-0.20000000298023224
aF-0.20000000298023224
aF-0.20000000298023224
aF-0.20000000298023224
aF-0.20000000298023224
aF-0.20000000298023224
aF-0.20000000298023224
aF-0.20000000298023224
aF-0.20000000298023224
aF-0.20000000298023224
aF-0.20000000298023224
aF-0.20000000298023224
aF-0.20000000298023224
aF-0.20000000298023224
aF-0.20000000298023224
aF-0.20000000298023224
aF-0.20000000298023224
aF-0.20000000298023224
aF-0.20000000298023224
aF-0.20000000298023224
aF-0.20000000298023224
aF-0.20000000298023224
aF-0.20000000298023224
aF-0.20000000298023224
aF-0.20000000298023224
aF-0.20000000298023224
aF-0.20000000298023224
aF-0.20000000298023224
aF-0.20000000298023224
aF-0.20000000298023224
aF-0.20000000298023224
aF-0.20000000298023224
aF-0.20000000298023224
aF-0.20000000298023224
aF-0.20000000298023224
aF-0.20000000298023224
aF-0.20000000298023224
aF-0.20000000298023224
aF-0.20000000298023224
aF-0.20000000298023224
aF-0.20000000298023224
aF-0.20000000298023224
aF-0.20000000298023224
aF-0.20000000298023224
aF-0.20000000298023224
aF-0.20000000298023224
aF-0.20000000298023224
aF-0.20000000298023224
aF-0.20000000298023224
aF-0.20000000298023224
aF-0.20000000298023224
aF-0.20000000298023224
aF-0.20000000298023224
aF-0.20000000298023224
aF-0.20000000298023224
aF-0.20000000298023224
aF-0.20000000298023224
aF-0.20000000298023224
aF-0.20000000298023224
aF-0.20000000298023224
aF-0.20000000298023224
aF-0.20000000298023224
aF-0.20000000298023224
aF-0.20000000298023224
aF-0.20000000298023224
aF-0.20000000298023224
aF-0.20000000298023224
aF-0.20000000298023224
aF-0.20000000298023224
aF-0.20000000298023224
aF-0.20000000298023224
aF-0.20000000298023224
aF-0.20000000298023224
aF-0.20000000298023224
aF-0.20000000298023224
aF-0.20000000298023224
aF-0.20000000298023224
aF-0.20000000298023224
aF-0.20000000298023224
aF-0.20000000298023224
aF-0.20000000298023224
aF-0.20000000298023224
aF-0.20000000298023224
aF-0.20000000298023224
aF-0.20000000298023224
aF-0.20000000298023224
aF-0.20000000298023224
aF-0.20000000298023224
aF-0.20000000298023224
aF-0.20000000298023224
aF-0.20000000298023224
aF-0.20000000298023224
aF-0.20000000298023224
aF-0.20000000298023224
aF-0.20000000298023224
aF-0.20000000298023224
aF-0.20000000298023224
aF-0.20000000298023224
aF-0.20000000298023224
aF-0.20000000298023224
aF-0.20000000298023224
aF-0.20000000298023224
aF-0.20000000298023224
aF-0.20000000298023224
aF-0.20000000298023224
aF-0.20000000298023224
aF-0.20000000298023224
aF-0.20000000298023224
aF-0.20000000298023224
aF-0.20000000298023224
aF-0.20000000298023224
aF-0.20000000298023224
aF-0.20000000298023224
aF-0.20000000298023224
aF-0.20000000298023224
aF-0.20000000298023224
aF-0.20000000298023224
aF-0.20000000298023224
aF-0.20000000298023224
aF-0.20000000298023224
aF-0.20000000298023224
aF-0.20000000298023224
aF-0.20000000298023224
aF-0.20000000298023224
aF-0.20000000298023224
aF-0.20000000298023224
aF-0.20000000298023224
aF-0.20000000298023224
aF-0.20000000298023224
aF-0.20000000298023224
aF-0.20000000298023224
aF-0.20000000298023224
aF-0.20000000298023224
aF-0.20000000298023224
aF-0.20000000298023224
aF-0.20000000298023224
aF-0.20000000298023224
aF-0.20000000298023224
aF-0.20000000298023224
aF-0.20000000298023224
aF-0.20000000298023224
aF-0.20000000298023224
aF-0.20000000298023224
aF-0.20000000298023224
aF-0.20000000298023224
aF-0.20000000298023224
aF-0.20000000298023224
aF-0.20000000298023224
aF-0.20000000298023224
aF-0.20000000298023224
aF-0.20000000298023224
aF-0.20000000298023224
aF-0.20000000298023224
aF3.4360592365264893
aF5.291375637054443
aF7.13960075378418
aF8.975335121154785
aF10.78788948059082
aF12.558221817016602
aF14.27562427520752
aF15.942436218261719
aF17.550701141357422
aF19.098419189453125
aF22.387296676635742
aF23.81420135498047
aF25.16720199584961
aF26.45176887512207
aF27.667556762695312
aF28.804454803466797
aF29.868701934814453
aF30.83538055419922
aF31.725221633911133
aF32.52729034423828
aF34.41619110107422
aF35.03898239135742
aF35.57111358642578
aF36.011878967285156
aF36.36094665527344
aF36.61903762817383
aF36.785614013671875
aF36.86933135986328
aF36.860992431640625
aF36.75998306274414
aF37.32321548461914
aF37.02729034423828
aF36.63804626464844
aF36.15586853027344
aF35.58051681518555
aF34.91162109375
aF34.15933609008789
aF33.30358123779297
aF32.354373931884766
aF31.311574935913086
aF29.520254135131836
aF28.791484832763672
aF27.97068214416504
aF27.0593318939209
aF26.04062843322754
aF24.954111099243164
aF23.7839298248291
aF22.530942916870117
aF21.199342727661133
aF19.799177169799805
aF16.775102615356445
aF15.22173023223877
aF13.60207748413086
aF11.91756820678711
aF10.16940689086914
aF8.373218536376953
aF6.525841236114502
aF4.642028331756592
aF2.7427046298980713
aF0.8459818363189697
aF-0.20000000298023224
aF-0.20000000298023224
aF-0.20000000298023224
aF-0.20000000298023224
aF-0.20000000298023224
aF-0.20000000298023224
aF-0.20000000298023224
aF-0.20000000298023224
aF-0.20000000298023224
aF-0.20000000298023224
aF-0.20000000298023224
aF-0.20000000298023224
aF-0.20000000298023224
aF-0.20000000298023224
aF-0.20000000298023224
aF-0.20000000298023224
aF-0.20000000298023224
aF-0.20000000298023224
aF-0.20000000298023224
aF-0.20000000298023224
aF-0.20000000298023224
aF-0.20000000298023224
aF-0.20000000298023224
aF-0.20000000298023224
aF-0.20000000298023224
aF-0.20000000298023224
aF-0.20000000298023224
aF-0.20000000298023224
aF-0.20000000298023224
aF-0.20000000298023224
aF-0.20000000298023224
aF-0.20000000298023224
aF-0.20000000298023224
aF-0.20000000298023224
aF-0.20000000298023224
aF-0.20000000298023224
aF-0.20000000298023224
aF-0.20000000298023224
aF-0.20000000298023224
aF-0.20000000298023224
aF-0.20000000298023224
aF-0.20000000298023224
aF-0.20000000298023224
aF-0.20000000298023224
aF-0.20000000298023224
aF-0.20000000298023224
aF-0.20000000298023224
aF-0.20000000298023224
aF-0.20000000298023224
aF-0.20000000298023224
aF-0.20000000298023224
aF-0.20000000298023224
aF-0.20000000298023224
aF-0.20000000298023224
aF-0.20000000298023224
aF-0.20000000298023224
aF-0.20000000298023224
aF-0.20000000298023224
aF-0.20000000298023224
aF-0.20000000298023224
aF-0.20000000298023224
aF-0.20000000298023224
aF-0.20000000298023224
aF-0.20000000298023224
aF-0.20000000298023224
aF-0.20000000298023224
aF-0.20000000298023224
aF-0.20000000298023224
aF-0.20000000298023224
aF-0.20000000298023224
aF-0.20000000298023224
aF-0.20000000298023224
aF-0.20000000298023224
aF-0.20000000298023224
aF-0.20000000298023224
aF-0.20000000298023224
aF-0.20000000298023224
aF-0.20000000298023224
aF-0.20000000298023224
aF-0.20000000298023224
aF-0.20000000298023224
aF-0.20000000298023224
aF-0.20000000298023224
aF-0.20000000298023224
aF-0.20000000298023224
aF-0.20000000298023224
aF-0.20000000298023224
aF-0.20000000298023224
aF-0.20000000298023224
aF-0.20000000298023224
aF-0.20000000298023224
aF-0.20000000298023224
aF-0.20000000298023224
aF-0.20000000298023224
aF-0.20000000298023224
aF-0.20000000298023224
aF-0.20000000298023224
aF-0.20000000298023224
aF-0.20000000298023224
aF-0.20000000298023224
aF-0.20000000298023224
aF-0.20000000298023224
aF-0.20000000298023224
aF-0.20000000298023224
aF-0.20000000298023224
aF-0.20000000298023224
aF-0.20000000298023224
aF-0.20000000298023224
aF-0.20000000298023224
aF-0.20000000298023224
aF-0.20000000298023224
aF-0.20000000298023224
aF-0.20000000298023224
aF-0.20000000298023224
aF-0.20000000298023224
aF-0.20000000298023224
aF-0.20000000298023224
aF-0.20000000298023224
aF-0.20000000298023224
aF-0.20000000298023224
aF-0.20000000298023224
aF-0.20000000298023224
aF-0.20000000298023224
aF-0.20000000298023224
aF-0.20000000298023224
aF-0.20000000298023224
aF-0.20000000298023224
aF-0.20000000298023224
aF-0.20000000298023224
aF-0.20000000298023224
aF-0.20000000298023224
aF-0.20000000298023224
aF-0.20000000298023224
aF-0.20000000298023224
aF-0.20000000298023224
aF-0.20000000298023224
aF-0.20000000298023224
aF-0.20000000298023224
aF-0.20000000298023224
aF-0.20000000298023224
aF-0.20000000298023224
aF-0.20000000298023224
aF-0.20000000298023224
aF-0.20000000298023224
aF-0.20000000298023224
aF-0.20000000298023224
aF-0.20000000298023224
aF-0.20000000298023224
aF-0.20000000298023224
aF-0.20000000298023224
aF-0.20000000298023224
aF-0.20000000298023224
aF-0.20000000298023224
aF-0.20000000298023224
aF-0.20000000298023224
aF-0.20000000298023224
aF-0.20000000298023224
aF-0.20000000298023224
aF-0.20000000298023224
aF-0.20000000298023224
aF-0.20000000298023224
aF-0.20000000298023224
aF-0.20000000298023224
aF-0.20000000298023224
aF-0.20000000298023224
aF-0.20000000298023224
aF-0.20000000298023224
aF-0.20000000298023224
aF-0.20000000298023224
aF-0.20000000298023224
aF-0.20000000298023224
aF-0.20000000298023224
aF-0.20000000298023224
aF-0.20000000298023224
aF-0.20000000298023224
aF-0.20000000298023224
aF-0.20000000298023224
aF-0.20000000298023224
aF-0.20000000298023224
aF-0.20000000298023224
aF-0.20000000298023224
aF-0.20000000298023224
aF-0.20000000298023224
aF-0.20000000298023224
aF-0.20000000298023224
aF-0.20000000298023224
aF-0.20000000298023224
aF-0.20000000298023224
aF-0.20000000298023224
aF-0.20000000298023224
aF-0.20000000298023224
aF-0.20000000298023224
aF-0.20000000298023224
aF-0.20000000298023224
aF-0.20000000298023224
aF-0.20000000298023224
aF-0.20000000298023224
aF-0.20000000298023224
aF-0.20000000298023224
aF-0.20000000298023224
aF-0.20000000298023224
aF-0.20000000298023224
aF-0.20000000298023224
aF-0.20000000298023224
aF-0.20000000298023224
aF-0.20000000298023224
aF-0.20000000298023224
aF-0.20000000298023224
aF-0.20000000298023224
aF-0.20000000298023224
aF-0.20000000298023224
aF-0.20000000298023224
aF-0.20000000298023224
aF-0.20000000298023224
aF-0.20000000298023224
aF-0.20000000298023224
aF-0.20000000298023224
aF-0.20000000298023224
aF-0.20000000298023224
aF-0.20000000298023224
aF-0.20000000298023224
aF-0.20000000298023224
aF-0.20000000298023224
aF-0.20000000298023224
aF-0.20000000298023224
aF-0.20000000298023224
aF-0.20000000298023224
aF-0.20000000298023224
aF-0.20000000298023224
aF-0.20000000298023224
aF-0.20000000298023224
aF-0.20000000298023224
aF-0.20000000298023224
aF-0.20000000298023224
aF-0.20000000298023224
aF-0.20000000298023224
aF-0.20000000298023224
aF-0.20000000298023224
aF-0.20000000298023224
aF-0.20000000298023224
aF-0.20000000298023224
aF-0.20000000298023224
aF-0.20000000298023224
aF-0.20000000298023224
aF-0.20000000298023224
aF-0.20000000298023224
aF-0.20000000298023224
aF-0.20000000298023224
aF-0.20000000298023224
aF-0.20000000298023224
aF-0.20000000298023224
aF-0.20000000298023224
aF-0.20000000298023224
aF-0.20000000298023224
aF-0.20000000298023224
aF-0.20000000298023224
aF-0.20000000298023224
aF-0.20000000298023224
aF-0.20000000298023224
aF-0.20000000298023224
aF-0.20000000298023224
aF-0.20000000298023224
aF-0.20000000298023224
aF-0.20000000298023224
aF-0.20000000298023224
aF-0.20000000298023224
aF-0.20000000298023224
aF-0.20000000298023224
aF-0.20000000298023224
aF-0.20000000298023224
aF-0.20000000298023224
aF-0.20000000298023224
aF-0.20000000298023224
aF-0.20000000298023224
aF-0.20000000298023224
aF-0.20000000298023224
aF-0.20000000298023224
aF-0.20000000298023224
aF-0.20000000298023224
aF-0.20000000298023224
aF2.662848949432373
aF3.815986394882202
aF4.962940692901611
aF6.09715461730957
aF7.225054740905762
aF8.328658103942871
aF9.403310775756836
aF10.452491760253906
aF11.46406078338623
aF12.425846099853516
aF14.865008354187012
aF15.740079879760742
aF16.549875259399414
aF17.30292320251465
aF17.998807907104492
aF18.636674880981445
aF19.2033748626709
aF19.696805953979492
aF20.122276306152344
aF20.492660522460938
aF21.911012649536133
aF22.135433197021484
aF22.295766830444336
aF22.37841033935547
aF22.382360458374023
aF22.320362091064453
aF22.18437957763672
aF21.981107711791992
aF21.6967716217041
aF21.338497161865234
aF21.330278396606445
aF20.81740379333496
aF20.246234893798828
aF19.58796501159668
aF18.864486694335938
aF18.078765869140625
aF17.217161178588867
aF16.287376403808594
aF15.291853904724121
aF14.231623649597168
aF12.664380073547363
aF11.484872817993164
aF10.238744735717773
aF8.9326810836792
aF7.562807083129883
aF6.157377243041992
aF4.7199320793151855
aF3.251284599304199
aF1.7743467092514038
aF0.2902100384235382
aF1.860509991645813
aF0.37700244784355164
aF-1.1052422523498535
aF1.8520150184631348
aF0.3830817639827728
aF-1.0847365856170654
aF1.841463327407837
aF0.3871198296546936
aF-1.0615495443344116
aF1.8309959173202515
aF-0.20000000298023224
aF-0.20000000298023224
aF-0.20000000298023224
aF-0.20000000298023224
aF-0.20000000298023224
aF-0.20000000298023224
aF-0.20000000298023224
aF-0.20000000298023224
aF-0.20000000298023224
aF-0.20000000298023224
aF-0.20000000298023224
aF-0.20000000298023224
aF-0.20000000298023224
aF-0.20000000298023224
aF-0.20000000298023224
aF-0.20000000298023224
aF-0.20000000298023224
aF-0.20000000298023224
aF-0.20000000298023224
aF-0.20000000298023224
aF-0.20000000298023224
aF-0.20000000298023224
aF-0.20000000298023224
aF-0.20000000298023224
aF-0.20000000298023224
aF-0.20000000298023224
aF-0.20000000298023224
aF-0.20000000298023224
aF-0.20000000298023224
aF-0.20000000298023224
aF-0.20000000298023224
aF-0.20000000298023224
aF-0.20000000298023224
aF-0.20000000298023224
aF-0.20000000298023224
aF-0.20000000298023224
aF-0.20000000298023224
aF-0.20000000298023224
aF-0.20000000298023224
aF-0.20000000298023224
aF-0.20000000298023224
aF-0.20000000298023224
aF-0.20000000298023224
aF-0.20000000298023224
aF-0.20000000298023224
aF-0.20000000298023224
aF-0.20000000298023224
aF-0.20000000298023224
aF-0.20000000298023224
aF-0.20000000298023224
aF-0.20000000298023224
aF-0.20000000298023224
aF-0.20000000298023224
aF-0.20000000298023224
aF-0.20000000298023224
aF-0.20000000298023224
aF-0.20000000298023224
aF-0.20000000298023224
aF-0.20000000298023224
aF-0.20000000298023224
aF-0.20000000298023224
aF-0.20000000298023224
aF-0.20000000298023224
aF-0.20000000298023224
aF-0.20000000298023224
aF-0.20000000298023224
aF-0.20000000298023224
aF-0.20000000298023224
aF-0.20000000298023224
aF-0.20000000298023224
aF-0.20000000298023224
aF-0.20000000298023224
aF-0.20000000298023224
aF-0.20000000298023224
aF-0.20000000298023224
aF-0.20000000298023224
aF-0.20000000298023224
aF-0.20000000298023224
aF-0.20000000298023224
aF-0.20000000298023224
aF-0.20000000298023224
aF-0.20000000298023224
aF-0.20000000298023224
aF-0.20000000298023224
aF-0.20000000298023224
aF-0.20000000298023224
aF-0.20000000298023224
aF-0.20000000298023224
aF-0.20000000298023224
aF-0.20000000298023224
aF-0.20000000298023224
aF-0.20000000298023224
aF-0.20000000298023224
aF-0.20000000298023224
aF-0.20000000298023224
aF-0.20000000298023224
aF-0.20000000298023224
aF-0.20000000298023224
aF-0.20000000298023224
aF-0.20000000298023224
aF-0.20000000298023224
aF-0.20000000298023224
aF-0.20000000298023224
aF-0.20000000298023224
aF-0.20000000298023224
aF-0.20000000298023224
aF-0.20000000298023224
aF-0.20000000298023224
aF-0.20000000298023224
aF-0.20000000298023224
aF-0.20000000298023224
aF-0.20000000298023224
aF-0.20000000298023224
aF-0.20000000298023224
aF-0.20000000298023224
aF-0.20000000298023224
aF-0.20000000298023224
aF-0.20000000298023224
aF-0.20000000298023224
aF-0.20000000298023224
aF-0.20000000298023224
aF-0.20000000298023224
aF-0.20000000298023224
aF-0.20000000298023224
aF-0.20000000298023224
aF-0.20000000298023224
aF-0.20000000298023224
aF-0.20000000298023224
aF-0.20000000298023224
aF-0.20000000298023224
aF0.7979379892349243
aF0.789406955242157
aF0.797097384929657
aF0.8088301420211792
aF0.8329194188117981
aF0.8592670559883118
aF0.8848125338554382
aF0.9127124547958374
aF0.9469704627990723
aF0.9831041097640991
aF2.120755910873413
aF2.1612088680267334
aF2.1996426582336426
aF2.7354483604431152
aF3.280956268310547
aF3.8162291049957275
aF4.340762615203857
aF4.858852386474609
aF5.361926555633545
aF5.849524021148682
aF6.937688827514648
aF7.386335849761963
aF7.814863204956055
aF8.22802734375
aF8.615411758422852
aF8.965757369995117
aF9.2870512008667
aF9.569310188293457
aF9.810113906860352
aF10.016728401184082
aF10.609071731567383
aF10.727730751037598
aF10.807008743286133
aF10.838305473327637
aF10.823188781738281
aF10.766708374023438
aF10.661481857299805
aF10.507890701293945
aF10.315946578979492
aF10.0699462890625
aF9.313297271728516
aF8.991704940795898
aF8.626152038574219
aF8.216812133789062
aF7.773115634918213
aF7.288882255554199
aF6.7764739990234375
aF6.2398362159729
aF5.675556182861328
aF5.0865159034729
aF4.861150741577148
aF4.236372470855713
aF3.5930681228637695
aF2.93636155128479
aF2.2725188732147217
aF1.5961699485778809
aF0.9234886169433594
aF0.24347743391990662
aF-0.43616947531700134
aF1.8776987791061401
aF0.9749951958656311
aF0.3230143189430237
aF-0.31450915336608887
aF1.8668098449707031
aF1.2331455945968628
aF0.6124944090843201
aF-0.003963872790336609
aF1.8560601472854614
aF1.2473382949829102
aF0.6364591717720032
aF-0.5132783651351929
aF1.84540855884552
aF1.2467025518417358
aF0.6506934762001038
aF0.0636017769575119
aF-0.5100690722465515
aF1.8322691917419434
aF1.2738627195358276
aF0.7171812057495117
aF0.16412700712680817
aF0.05916770175099373
aF-0.4808540642261505
aF1.8165456056594849
aF1.2963234186172485
aF0.777601420879364
aF0.26212120056152344
aF-0.2412552684545517
aF1.8041666746139526
aF1.2982916831970215
aF0.8016020655632019
aF-0.12576772272586823
aF1.7941625118255615
aF1.3027821779251099
aF0.8301316499710083
aF0.3701862096786499
aF-0.08427548408508301
aF1.7818589210510254
aF1.3307602405548096
aF0.8921366333961487
aF0.4529363811016083
aF0.4610225260257721
aF0.032610952854156494
aF-0.3921354413032532
aF1.7649794816970825
aF1.3585673570632935
aF1.4544187784194946
aF1.5454269647598267
aF1.639675259590149
aF1.7395458221435547
aF1.8363757133483887
aF1.9798067808151245
aF2.083235502243042
aF2.1867637634277344
aF2.2905731201171875
aF2.3981122970581055
aF2.500345468521118
aF2.6041035652160645
aF2.7021055221557617
aF2.792499303817749
aF2.886599063873291
aF3.499708890914917
aF3.5820679664611816
aF3.662503957748413
aF3.734269142150879
aF3.8036160469055176
aF3.864453077316284
aF3.9170801639556885
aF3.9519906044006348
aF3.9845006465911865
aF4.00319242477417
aF4.004242897033691
aF4.005899906158447
aF3.993532419204712
aF3.97171688079834
aF3.9374237060546875
aF3.89400053024292
aF3.8364057540893555
aF3.776176691055298
aF3.7072319984436035
aF3.620697498321533
aF3.359431505203247
aF3.2589995861053467
aF3.15301251411438
aF3.0327744483947754
aF2.9100189208984375
aF2.7826173305511475
aF2.6431448459625244
aF2.5021517276763916
aF2.3532416820526123
aF2.2095882892608643
aF2.0669965744018555
aF1.9104756116867065
aF1.7612051963806152
aF1.607176423072815
aF1.4559433460235596
aF1.3066407442092896
aF1.1554316282272339
aF1.001793384552002
aF0.860165536403656
aF0.7195752263069153
aF1.074404239654541
aF0.9476794004440308
aF0.823460578918457
aF0.7009429335594177
aF0.5896856784820557
aF0.4841589033603668
aF0.3803776502609253
aF0.2910934090614319
aF0.2014765739440918
aF0.11923538893461227
aF2.101630210876465
aF2.038296699523926
aF1.9696379899978638
aF1.9082310199737549
aF1.8420968055725098
aF1.7714742422103882
aF1.7086873054504395
aF1.6421189308166504
aF1.5718053579330444
aF1.5106943845748901
aF1.8058905601501465
aF1.7389661073684692
aF1.6803842782974243
aF1.618496298789978
aF1.5526163578033447
aF1.4959311485290527
aF1.4367492198944092
aF1.3825774192810059
aF1.3303056955337524
aF1.2801024913787842
aF1.7233010530471802
aF1.678236961364746
aF1.6322847604751587
aF1.5847495794296265
aF1.548147439956665
aF1.5090330839157104
aF1.4668912887573242
aF1.9340277910232544
aF2.393134593963623
aF2.8518898487091064
aF2.9756920337677
aF3.431121826171875
aF3.8815078735351562
aF4.333991050720215
aF4.771846294403076
aF5.204397678375244
aF5.6259446144104
aF6.031451225280762
aF6.416257858276367
aF6.787442207336426
aF6.788496494293213
aF7.108895301818848
aF7.41304349899292
aF7.683466911315918
aF7.936420917510986
aF8.163270950317383
aF8.358328819274902
aF8.521407127380371
aF8.659929275512695
aF8.762773513793945
aF9.156880378723145
aF9.19791030883789
aF9.2022123336792
aF9.169964790344238
aF9.110991477966309
aF9.013763427734375
aF8.878416061401367
aF8.71462345123291
aF8.514281272888184
aF8.27819538116455
aF7.780251502990723
aF7.490016460418701
aF7.160358428955078
aF6.807619571685791
aF6.416077613830566
aF6.004947185516357
aF5.578502178192139
aF5.1208367347717285
aF4.648736476898193
aF4.1703972816467285
aF3.0249946117401123
aF2.5140795707702637
aF2.002354145050049
aF1.4785281419754028
aF0.9504782557487488
aF0.42766958475112915
aF-0.09435053914785385
aF2.4053852558135986
aF1.8949642181396484
aF1.381485939025879
aF0.1843409687280655
aF-0.3317347466945648
aF2.389828681945801
aF1.8853033781051636
aF1.3912677764892578
aF0.8998929858207703
aF0.40713265538215637
aF-0.07457136362791061
aF2.371079683303833
aF1.9047350883483887
aF0.7196433544158936
aF0.2764294445514679
aF-0.1645016223192215
aF2.3566009998321533
aF1.9213917255401611
aF1.4821957349777222
aF1.0513380765914917
aF0.6169549822807312
aF0.18276287615299225
aF-0.24380037188529968
aF2.3333940505981445
aF1.9246670007705688
aF1.5202035903930664
aF1.1118556261062622
aF0.7036465406417847
aF0.31120312213897705
aF-0.07723791152238846
aF2.314972162246704
aF1.938472867012024
aF1.5580267906188965
aF0.8735556602478027
aF0.5020790696144104
aF0.13065847754478455
aF-0.24160467088222504
aF2.2948148250579834
aF1.9428313970565796
aF1.5983606576919556
aF1.265128254890442
aF0.9465538859367371
aF1.0915274620056152
aF0.5450879335403442
aF0.7008787393569946
aF0.85787433385849
aF1.0288007259368896
aF1.2015910148620605
aF1.3758058547973633
aF1.5552321672439575
aF1.7456766366958618
aF1.9397852420806885
aF2.1366522312164307
aF2.3172237873077393
aF2.5180349349975586
aF2.721736192703247
aF2.9211230278015137
aF3.123326063156128
aF3.3219985961914062
aF3.5133728981018066
aF3.6967852115631104
aF3.8816752433776855
aF4.0554585456848145
aF4.373878479003906
aF4.535583972930908
aF4.684266567230225
aF4.824487686157227
aF4.953122615814209
aF5.068796634674072
aF5.168523788452148
aF5.257626533508301
aF5.33359432220459
aF5.3905816078186035
aF5.7206711769104
aF5.756065368652344
aF5.7668375968933105
aF5.769217014312744
aF5.752451419830322
aF5.714613914489746
aF5.666720867156982
aF5.598054885864258
aF5.508817195892334
aF5.410394191741943
aF5.445864200592041
aF5.307589054107666
aF5.161144256591797
aF4.990281581878662
aF4.80563497543335
aF4.615352630615234
aF4.408421516418457
aF4.184604167938232
aF3.951112747192383
aF3.706817388534546
aF2.97493577003479
aF2.7149908542633057
aF2.4522578716278076
aF2.183654308319092
aF1.9074498414993286
aF1.63273286819458
aF1.3545845746994019
aF1.0857841968536377
aF0.818103551864624
aF0.5524361729621887
aF0.5820360779762268
aF0.33484339714050293
aF0.09226756542921066
aF-0.1328045278787613
aF2.5534660816192627
aF2.329277515411377
aF2.112705945968628
aF1.8916347026824951
aF1.6669862270355225
aF1.4527753591537476
aF0.9761623740196228
aF0.7591906785964966
aF0.554993212223053
aF0.3514780104160309
aF0.14802804589271545
aF-0.036958616226911545
aF2.5180952548980713
aF2.344259262084961
aF2.1823129653930664
aF2.0169336795806885
aF2.0780889987945557
aF1.9164185523986816
aF1.7521528005599976
aF1.5845876932144165
aF1.4225077629089355
aF1.2638120651245117
aF1.1040899753570557
aF0.9474326968193054
aF0.804219126701355
aF0.6599177718162537
aF-0.20000000298023224
aF-0.20000000298023224
aF-0.20000000298023224
aF-0.20000000298023224
aF-0.20000000298023224
aF-0.20000000298023224
aF-0.20000000298023224
aF-0.20000000298023224
aF-0.20000000298023224
aF-0.20000000298023224
aF-0.20000000298023224
aF-0.20000000298023224
aF-0.20000000298023224
aF-0.20000000298023224
aF-0.20000000298023224
aF-0.20000000298023224
aF-0.20000000298023224
aF-0.20000000298023224
aF-0.20000000298023224
aF-0.20000000298023224
aF0.38750553131103516
aF0.9866271615028381
aF1.5930997133255005
aF2.2060718536376953
aF2.8358218669891357
aF3.464362144470215
aF4.088169097900391
aF4.718894004821777
aF5.337105751037598
aF5.93825101852417
aF6.503379821777344
aF7.084166526794434
aF7.6331024169921875
aF8.166818618774414
aF8.66879940032959
aF9.146772384643555
aF9.597599029541016
aF10.008243560791016
aF10.393976211547852
aF10.739696502685547
aF11.288026809692383
aF11.547171592712402
aF11.766754150390625
aF11.938112258911133
aF12.06140422821045
aF12.133577346801758
aF12.162100791931152
aF12.139352798461914
aF12.073784828186035
aF11.964494705200195
aF-0.20000000298023224
aF-0.20000000298023224
aF-0.20000000298023224
aF-0.20000000298023224
aF-0.20000000298023224
aF-0.20000000298023224
aF-0.20000000298023224
aF-0.20000000298023224
aF-0.20000000298023224
aF-0.20000000298023224
aF-0.20000000298023224
aF-0.20000000298023224
aF-0.20000000298023224
aF-0.20000000298023224
aF-0.20000000298023224
aF-0.20000000298023224
aF-0.20000000298023224
aF-0.20000000298023224
aF-0.20000000298023224
aF-0.20000000298023224
aF-0.20000000298023224
aF-0.20000000298023224
aF-0.20000000298023224
aF-0.20000000298023224
aF-0.20000000298023224
aF-0.20000000298023224
aF-0.20000000298023224
aF-0.20000000298023224
aF-0.20000000298023224
aF-0.20000000298023224
aF-0.20000000298023224
aF-0.20000000298023224
aF-0.20000000298023224
aF-0.20000000298023224
aF-0.20000000298023224
aF-0.20000000298023224
aF-0.20000000298023224
aF-0.20000000298023224
aF-0.20000000298023224
aF-0.20000000298023224
aF-0.20000000298023224
aF-0.20000000298023224
aF-0.20000000298023224
aF-0.20000000298023224
aF-0.20000000298023224
aF-0.20000000298023224
aF-0.20000000298023224
aF-0.20000000298023224
aF-0.20000000298023224
aF-0.20000000298023224
aF-0.20000000298023224
aF-0.20000000298023224
aF-0.20000000298023224
aF-0.20000000298023224
aF-0.20000000298023224
aF-0.20000000298023224
aF-0.20000000298023224
aF-0.20000000298023224
aF-0.20000000298023224
aF-0.20000000298023224
aF-0.20000000298023224
aF-0.20000000298023224
aF-0.20000000298023224
aF-0.20000000298023224
aF-0.20000000298023224
aF-0.20000000298023224
aF-0.20000000298023224
aF-0.20000000298023224
aF-0.20000000298023224
aF-0.20000000298023224
aF-0.20000000298023224
aF-0.20000000298023224
aF-0.20000000298023224
aF-0.20000000298023224
aF-0.20000000298023224
aF-0.20000000298023224
aF-0.20000000298023224
aF-0.20000000298023224
aF-0.20000000298023224
aF-0.20000000298023224
aF-0.20000000298023224
aF-0.20000000298023224
aF-0.20000000298023224
aF-0.20000000298023224
aF-0.20000000298023224
aF-0.20000000298023224
aF-0.20000000298023224
aF-0.20000000298023224
aF-0.20000000298023224
aF-0.20000000298023224
aF-0.20000000298023224
aF-0.20000000298023224
aF-0.20000000298023224
aF-0.20000000298023224
aF-0.20000000298023224
aF-0.20000000298023224
aF-0.20000000298023224
aF-0.20000000298023224
aF-0.20000000298023224
aF-0.20000000298023224
aF-0.20000000298023224
aF-0.20000000298023224
aF-0.20000000298023224
aF-0.20000000298023224
aF-0.20000000298023224
aF-0.20000000298023224
aF-0.20000000298023224
aF-0.20000000298023224
aF-0.20000000298023224
aF-0.20000000298023224
aF-0.20000000298023224
aF-0.20000000298023224
aF-0.20000000298023224
aF-0.20000000298023224
aF-0.20000000298023224
aF-0.20000000298023224
aF-0.20000000298023224
aF-0.20000000298023224
aF-0.20000000298023224
aF-0.20000000298023224
aF-0.20000000298023224
aF-0.20000000298023224
aF-0.20000000298023224
aF-0.20000000298023224
aF-0.20000000298023224
aF-0.20000000298023224
aF-0.20000000298023224
aF-0.20000000298023224
aF-0.20000000298023224
aF-0.20000000298023224
aF-0.20000000298023224
aF-0.20000000298023224
aF-0.20000000298023224
aF-0.20000000298023224
aF-0.20000000298023224
aF-0.20000000298023224
aF-0.20000000298023224
aF-0.20000000298023224
aF-0.20000000298023224
aF-0.20000000298023224
aF-0.20000000298023224
aF-0.20000000298023224
aF-0.20000000298023224
aF-0.20000000298023224
aF-0.20000000298023224
aF-0.20000000298023224
aF-0.20000000298023224
aF-0.20000000298023224
aF-0.20000000298023224
aF-0.20000000298023224
aF-0.20000000298023224
aF-0.20000000298023224
aF-0.20000000298023224
aF-0.20000000298023224
aF-0.20000000298023224
aF-0.20000000298023224
aF-0.20000000298023224
aF-0.20000000298023224
aF-0.20000000298023224
aF-0.20000000298023224
aF-0.20000000298023224
aF-0.20000000298023224
aF-0.20000000298023224
aF-0.20000000298023224
aF-0.20000000298023224
aF-0.20000000298023224
aF-0.20000000298023224
aF-0.20000000298023224
aF-0.20000000298023224
aF-0.20000000298023224
aF-0.20000000298023224
aF-0.20000000298023224
aF-0.20000000298023224
aF-0.20000000298023224
aF-0.20000000298023224
aF-0.20000000298023224
aF-0.20000000298023224
aF-0.20000000298023224
aF-0.20000000298023224
aF-0.20000000298023224
aF-0.20000000298023224
aF-0.20000000298023224
aF-0.20000000298023224
aF-0.20000000298023224
aF-0.20000000298023224
aF-0.20000000298023224
aF-0.20000000298023224
aF-0.20000000298023224
aF-0.20000000298023224
aF-0.20000000298023224
aF-0.20000000298023224
aF-0.20000000298023224
aF-0.20000000298023224
aF-0.20000000298023224
aF-0.20000000298023224
aF-0.20000000298023224
aF-0.20000000298023224
aF-0.20000000298023224
aF-0.20000000298023224
aF-0.20000000298023224
aF-0.20000000298023224
aF-0.20000000298023224
aF-0.20000000298023224
aF-0.20000000298023224
aF-0.20000000298023224
aF-0.20000000298023224
aF-0.20000000298023224
aF-0.20000000298023224
aF-0.20000000298023224
aF-0.20000000298023224
aF-0.20000000298023224
aF-0.20000000298023224
aF-0.20000000298023224
aF-0.20000000298023224
aF-0.20000000298023224
aF-0.20000000298023224
aF-0.20000000298023224
aF-0.20000000298023224
aF-0.20000000298023224
aF-0.20000000298023224
aF-0.20000000298023224
aF-0.20000000298023224
aF-0.20000000298023224
aF-0.20000000298023224
aF-0.20000000298023224
aF-0.20000000298023224
aF-0.20000000298023224
aF-0.20000000298023224
aF-0.20000000298023224
aF-0.20000000298023224
aF-0.20000000298023224
aF-0.20000000298023224
aF-0.20000000298023224
aF-0.20000000298023224
aF-0.20000000298023224
aF-0.20000000298023224
aF-0.20000000298023224
aF-0.20000000298023224
aF-0.20000000298023224
aF-0.20000000298023224
aF-0.20000000298023224
aF-0.20000000298023224
aF-0.20000000298023224
aF-0.20000000298023224
aF-0.20000000298023224
aF-0.20000000298023224
aF-0.20000000298023224
aF-0.20000000298023224
aF-0.20000000298023224
aF-0.20000000298023224
aF-0.20000000298023224
aF-0.20000000298023224
aF-0.20000000298023224
aF-0.20000000298023224
aF-0.20000000298023224
aF-0.20000000298023224
aF-0.20000000298023224
aF-0.20000000298023224
aF-0.20000000298023224
aF-0.20000000298023224
aF-0.20000000298023224
aF-0.20000000298023224
aF-0.20000000298023224
aF-0.20000000298023224
aF-0.20000000298023224
aF-0.20000000298023224
aF-0.20000000298023224
aF-0.20000000298023224
aF-0.20000000298023224
aF-0.20000000298023224
aF-0.20000000298023224
aF-0.20000000298023224
aF-0.20000000298023224
aF-0.20000000298023224
aF-0.20000000298023224
aF-0.20000000298023224
aF-0.20000000298023224
aF-0.20000000298023224
aF-0.20000000298023224
aF-0.20000000298023224
aF-0.20000000298023224
aF-0.20000000298023224
aF-0.20000000298023224
aF-0.20000000298023224
aF-0.20000000298023224
aF-0.20000000298023224
aF-0.20000000298023224
aF-0.20000000298023224
aF-0.20000000298023224
aF-0.20000000298023224
aF-0.20000000298023224
aF-0.20000000298023224
aF-0.20000000298023224
aF-0.20000000298023224
aF-0.20000000298023224
aF-0.20000000298023224
aF-0.20000000298023224
aF-0.20000000298023224
aF-0.20000000298023224
aF-0.20000000298023224
aF-0.20000000298023224
aF-0.20000000298023224
aF-0.20000000298023224
aF-0.20000000298023224
aF-0.20000000298023224
aF-0.20000000298023224
aF-0.20000000298023224
aF-0.20000000298023224
aF-0.20000000298023224
aF-0.20000000298023224
aF-0.20000000298023224
aF-0.20000000298023224
aF-0.20000000298023224
aF-0.20000000298023224
aF-0.20000000298023224
aF-0.20000000298023224
aF-0.20000000298023224
aF-0.20000000298023224
aF-0.20000000298023224
aF-0.20000000298023224
aF-0.20000000298023224
aF-0.20000000298023224
aF-0.20000000298023224
aF-0.20000000298023224
aF-0.20000000298023224
aF-0.20000000298023224
aF-0.20000000298023224
aF-0.20000000298023224
aF-0.20000000298023224
aF-0.20000000298023224
aF-0.20000000298023224
aF-0.20000000298023224
aF-0.20000000298023224
aF-0.20000000298023224
aF-0.20000000298023224
aF-0.20000000298023224
aF-0.20000000298023224
aF-0.20000000298023224
aF-0.20000000298023224
aF-0.20000000298023224
aF-0.20000000298023224
aF-0.20000000298023224
aF-0.20000000298023224
aF-0.20000000298023224
aF-0.20000000298023224
aF-0.20000000298023224
aF-0.20000000298023224
aF-0.20000000298023224
aF-0.20000000298023224
aF-0.20000000298023224
aF-0.20000000298023224
aF-0.20000000298023224
aF-0.20000000298023224
aF-0.20000000298023224
aF-0.20000000298023224
aF-0.20000000298023224
aF-0.20000000298023224
aF-0.20000000298023224
aF-0.20000000298023224
aF-0.20000000298023224
aF-0.20000000298023224
aF-0.20000000298023224
aF-0.20000000298023224
aF-0.20000000298023224
aF-0.20000000298023224
aF-0.20000000298023224
aF-0.20000000298023224
aF-0.20000000298023224
aF-0.20000000298023224
aF-0.20000000298023224
aF-0.20000000298023224
aF-0.20000000298023224
aF-0.20000000298023224
aF-0.20000000298023224
aF-0.20000000298023224
aF-0.20000000298023224
aF-0.20000000298023224
aF-0.20000000298023224
aF-0.20000000298023224
aF-0.20000000298023224
aF-0.20000000298023224
aF-0.20000000298023224
aF-0.20000000298023224
aF-0.20000000298023224
aF-0.20000000298023224
aF-0.20000000298023224
aF-0.20000000298023224
aF-0.20000000298023224
aF-0.20000000298023224
aF-0.20000000298023224
aF-0.20000000298023224
aF-0.20000000298023224
aF-0.20000000298023224
aF-0.20000000298023224
aF-0.20000000298023224
aF-0.20000000298023224
aF-0.20000000298023224
aF-0.20000000298023224
aF-0.20000000298023224
aF-0.20000000298023224
aF-0.20000000298023224
aF-0.20000000298023224
aF-0.20000000298023224
aF-0.20000000298023224
aF-0.20000000298023224
aF-0.20000000298023224
aF-0.20000000298023224
aF-0.20000000298023224
aF-0.20000000298023224
aF-0.20000000298023224
aF-0.20000000298023224
aF-0.20000000298023224
aF-0.20000000298023224
aF-0.20000000298023224
aF-0.20000000298023224
aF-0.20000000298023224
aF-0.20000000298023224
aF-0.20000000298023224
aF-0.20000000298023224
aF-0.20000000298023224
aF-0.20000000298023224
aF-0.20000000298023224
aF-0.20000000298023224
aF-0.20000000298023224
aF-0.20000000298023224
aF-0.20000000298023224
aF-0.20000000298023224
aF-0.20000000298023224
aF-0.20000000298023224
aF-0.20000000298023224
aF-0.20000000298023224
aF-0.20000000298023224
aF-0.20000000298023224
aF-0.20000000298023224
aF-0.20000000298023224
aF-0.20000000298023224
aF-0.20000000298023224
aF-0.20000000298023224
aF-0.20000000298023224
aF-0.20000000298023224
aF-0.20000000298023224
aF-0.20000000298023224
aF-0.20000000298023224
aF-0.20000000298023224
aF-0.20000000298023224
aF-0.20000000298023224
aF-0.20000000298023224
aF-0.20000000298023224
aF-0.20000000298023224
aF-0.20000000298023224
aF-0.20000000298023224
aF-0.20000000298023224
aF-0.20000000298023224
aF-0.20000000298023224
aF-0.20000000298023224
aF-0.20000000298023224
aF-0.20000000298023224
aF-0.20000000298023224
aF-0.20000000298023224
aF-0.20000000298023224
aF-0.20000000298023224
aF-0.20000000298023224
aF-0.20000000298023224
aF-0.20000000298023224
aF-0.20000000298023224
aF-0.20000000298023224
aF-0.20000000298023224
aF-0.20000000298023224
aF-0.20000000298023224
aF-0.20000000298023224
aF-0.20000000298023224
aF-0.20000000298023224
aF-0.20000000298023224
aF-0.20000000298023224
aF-0.20000000298023224
aF-0.20000000298023224
aF-0.20000000298023224
aF-0.20000000298023224
aF-0.20000000298023224
aF-0.20000000298023224
aF-0.20000000298023224
aF-0.20000000298023224
aF-0.20000000298023224
aF-0.20000000298023224
aF-0.20000000298023224
aF-0.20000000298023224
aF-0.20000000298023224
aF-0.20000000298023224
aF-0.20000000298023224
aF-0.20000000298023224
aF-0.20000000298023224
aF-0.20000000298023224
aF-0.20000000298023224
aF-0.20000000298023224
aF-0.20000000298023224
aF-0.20000000298023224
aF-0.20000000298023224
aF-0.20000000298023224
aF-0.20000000298023224
aF-0.20000000298023224
aF-0.20000000298023224
aF-0.20000000298023224
aF-0.20000000298023224
aF-0.20000000298023224
aF-0.20000000298023224
aF-0.20000000298023224
aF-0.20000000298023224
aF-0.20000000298023224
aF-0.20000000298023224
aF-0.20000000298023224
aF-0.20000000298023224
aF-0.20000000298023224
aF-0.20000000298023224
aF-0.20000000298023224
aF-0.20000000298023224
aF-0.20000000298023224
aF-0.20000000298023224
aF-0.20000000298023224
aF-0.20000000298023224
aF-0.20000000298023224
aF-0.20000000298023224
aF-0.20000000298023224
aF-0.20000000298023224
aF-0.20000000298023224
aF-0.20000000298023224
aF-0.20000000298023224
aF-0.20000000298023224
aF-0.20000000298023224
aF-0.20000000298023224
aF-0.20000000298023224
aF-0.20000000298023224
aF-0.20000000298023224
aF-0.20000000298023224
aF-0.20000000298023224
aF-0.20000000298023224
aF-0.20000000298023224
aF-0.20000000298023224
aF-0.20000000298023224
aF-0.20000000298023224
aF-0.20000000298023224
aF-0.20000000298023224
aF-0.20000000298023224
aF-0.20000000298023224
aF-0.20000000298023224
aF-0.20000000298023224
aF-0.20000000298023224
aF-0.20000000298023224
aF-0.20000000298023224
aF-0.20000000298023224
aF-0.20000000298023224
aF-0.20000000298023224
aF-0.20000000298023224
aF-0.20000000298023224
aF-0.20000000298023224
aF-0.20000000298023224
aF-0.20000000298023224
aF-0.20000000298023224
aF-0.20000000298023224
aF-0.20000000298023224
aF-0.20000000298023224
aF-0.20000000298023224
aF-0.20000000298023224
aF-0.20000000298023224
aF-0.20000000298023224
aF-0.20000000298023224
aF-0.20000000298023224
aF-0.20000000298023224
aF-0.20000000298023224
aF-0.20000000298023224
aF-0.20000000298023224
aF-0.20000000298023224
aF-0.20000000298023224
aF-0.20000000298023224
aF-0.20000000298023224
aF-0.20000000298023224
aF-0.20000000298023224
aF-0.20000000298023224
aF-0.20000000298023224
aF-0.20000000298023224
aF-0.20000000298023224
aF-0.20000000298023224
aF-0.20000000298023224
aF-0.20000000298023224
aF-0.20000000298023224
aF-0.20000000298023224
aF-0.20000000298023224
aF-0.20000000298023224
aF-0.20000000298023224
aF-0.20000000298023224
aF-0.20000000298023224
aF-0.20000000298023224
aF-0.20000000298023224
aF-0.20000000298023224
aF-0.20000000298023224
aF-0.20000000298023224
aF-0.20000000298023224
aF-0.20000000298023224
aF-0.20000000298023224
aF-0.20000000298023224
aF-0.20000000298023224
aF-0.20000000298023224
aF-0.20000000298023224
aF-0.20000000298023224
aF-0.20000000298023224
aF-0.20000000298023224
aF-0.20000000298023224
aF-0.20000000298023224
aF-0.20000000298023224
aF-0.20000000298023224
aF-0.20000000298023224
aF-0.20000000298023224
aF-0.20000000298023224
aF-0.20000000298023224
aF-0.20000000298023224
aF-0.20000000298023224
aF-0.20000000298023224
aF-0.20000000298023224
aF-0.20000000298023224
aF-0.20000000298023224
aF-0.20000000298023224
aF-0.20000000298023224
aF-0.20000000298023224
aF-0.20000000298023224
aF-0.20000000298023224
aF-0.20000000298023224
aF-0.20000000298023224
aF-0.20000000298023224
aF-0.20000000298023224
aF-0.20000000298023224
aF-0.20000000298023224
aF-0.20000000298023224
aF-0.20000000298023224
aF-0.20000000298023224
aF-0.20000000298023224
aF-0.20000000298023224
aF-0.20000000298023224
aF-0.20000000298023224
aF-0.20000000298023224
aF-0.20000000298023224
aF-0.20000000298023224
aF-0.20000000298023224
aF-0.20000000298023224
aF-0.20000000298023224
aF-0.20000000298023224
aF-0.20000000298023224
aF-0.20000000298023224
aF-0.20000000298023224
aF-0.20000000298023224
aF-0.20000000298023224
aF-0.20000000298023224
aF-0.20000000298023224
aF-0.20000000298023224
aF-0.20000000298023224
aF-0.20000000298023224
aF-0.20000000298023224
aF-0.20000000298023224
aF-0.20000000298023224
aF-0.20000000298023224
aF-0.20000000298023224
aF-0.20000000298023224
aF-0.20000000298023224
aF-0.20000000298023224
aF-0.20000000298023224
aF-0.20000000298023224
aF-0.20000000298023224
aF-0.20000000298023224
aF-0.20000000298023224
aF-0.20000000298023224
aF-0.20000000298023224
aF-0.20000000298023224
aF-0.20000000298023224
aF-0.20000000298023224
aF-0.20000000298023224
aF-0.20000000298023224
aF-0.20000000298023224
aF-0.20000000298023224
aF-0.20000000298023224
aF-0.20000000298023224
aF-0.20000000298023224
aF-0.20000000298023224
aF-0.20000000298023224
aF-0.20000000298023224
aF-0.20000000298023224
aF-0.20000000298023224
aF-0.20000000298023224
aF-0.20000000298023224
aF-0.20000000298023224
aF-0.20000000298023224
aF-0.20000000298023224
aF-0.20000000298023224
aF-0.20000000298023224
aF-0.20000000298023224
aF-0.20000000298023224
aF-0.20000000298023224
aF-0.20000000298023224
aF-0.20000000298023224
aF-0.20000000298023224
aF-0.20000000298023224
aF-0.20000000298023224
aF-0.20000000298023224
aF-0.20000000298023224
aF-0.20000000298023224
aF-0.20000000298023224
aF-0.20000000298023224
aF-0.20000000298023224
aF-0.20000000298023224
aF-0.20000000298023224
aF-0.20000000298023224
aF-0.20000000298023224
aF-0.20000000298023224
aF-0.20000000298023224
aF-0.20000000298023224
aF-0.20000000298023224
aF-0.20000000298023224
aF-0.20000000298023224
aF-0.20000000298023224
aF-0.20000000298023224
aF-0.20000000298023224
aF-0.20000000298023224
aF-0.20000000298023224
aF-0.20000000298023224
aF-0.20000000298023224
aF-0.20000000298023224
aF-0.20000000298023224
aF-0.20000000298023224
aF-0.20000000298023224
aF-0.20000000298023224
aF-0.20000000298023224
aF-0.20000000298023224
aF-0.20000000298023224
aF-0.20000000298023224
aF-0.20000000298023224
aF-0.20000000298023224
aF-0.20000000298023224
aF-0.20000000298023224
aF-0.20000000298023224
aF-0.20000000298023224
aF-0.20000000298023224
aF-0.20000000298023224
aF-0.20000000298023224
aF-0.20000000298023224
aF-0.20000000298023224
aF-0.20000000298023224
aF-0.20000000298023224
aF-0.20000000298023224
aF-0.20000000298023224
aF-0.20000000298023224
aF-0.20000000298023224
aF-0.20000000298023224
aF-0.20000000298023224
aF-0.20000000298023224
aF-0.20000000298023224
aF-0.20000000298023224
aF-0.20000000298023224
aF-0.20000000298023224
aF-0.20000000298023224
aF-0.20000000298023224
aF-0.20000000298023224
aF-0.20000000298023224
aF-0.20000000298023224
aF-0.20000000298023224
aF-0.20000000298023224
aF-0.20000000298023224
aF-0.20000000298023224
aF-0.20000000298023224
aF-0.20000000298023224
aF-0.20000000298023224
aF-0.20000000298023224
aF-0.20000000298023224
aF-0.20000000298023224
aF-0.20000000298023224
aF-0.20000000298023224
aF-0.20000000298023224
aF-0.20000000298023224
aF-0.20000000298023224
aF-0.20000000298023224
aF-0.20000000298023224
aF-0.20000000298023224
aF-0.20000000298023224
aF-0.20000000298023224
aF-0.20000000298023224
aF-0.20000000298023224
aF-0.20000000298023224
aF-0.20000000298023224
aF-0.20000000298023224
aF-0.20000000298023224
aF-0.20000000298023224
aF-0.20000000298023224
aF-0.20000000298023224
aF-0.20000000298023224
aF-0.20000000298023224
aF-0.20000000298023224
aF-0.20000000298023224
aF-0.20000000298023224
aF-0.20000000298023224
aF-0.20000000298023224
aF-0.20000000298023224
aF-0.20000000298023224
aF-0.20000000298023224
aF-0.20000000298023224
aF-0.20000000298023224
aF-0.20000000298023224
aF-0.20000000298023224
aF-0.20000000298023224
aF-0.20000000298023224
aF-0.20000000298023224
aF-0.20000000298023224
aF-0.20000000298023224
aF-0.20000000298023224
aF-0.20000000298023224
aF-0.20000000298023224
aF-0.20000000298023224
aF-0.20000000298023224
aF-0.20000000298023224
aF-0.20000000298023224
aF-0.20000000298023224
aF-0.20000000298023224
aF-0.20000000298023224
aF-0.20000000298023224
aF-0.20000000298023224
aF-0.20000000298023224
aF-0.20000000298023224
aF-0.20000000298023224
aF-0.20000000298023224
aF-0.20000000298023224
aF-0.20000000298023224
aF-0.20000000298023224
aF-0.20000000298023224
aF-0.20000000298023224
aF-0.20000000298023224
aF-0.20000000298023224
aF-0.20000000298023224
aF-0.20000000298023224
aF-0.20000000298023224
aF-0.20000000298023224
aF-0.20000000298023224
aF-0.20000000298023224
aF-0.20000000298023224
aF-0.20000000298023224
aF-0.20000000298023224
aF-0.20000000298023224
aF-0.20000000298023224
aF-0.20000000298023224
aF-0.20000000298023224
aF-0.20000000298023224
aF-0.20000000298023224
aF-0.20000000298023224
aF-0.20000000298023224
aF-0.20000000298023224
aF-0.20000000298023224
aF-0.20000000298023224
aF-0.20000000298023224
aF-0.20000000298023224
aF-0.20000000298023224
aF-0.20000000298023224
aF-0.20000000298023224
aF-0.20000000298023224
aF-0.20000000298023224
aF-0.20000000298023224
aF-0.20000000298023224
aF-0.20000000298023224
aF-0.20000000298023224
aF-0.20000000298023224
aF-0.20000000298023224
aF-0.20000000298023224
aF-0.20000000298023224
aF-0.20000000298023224
aF-0.20000000298023224
aF-0.20000000298023224
aF-0.20000000298023224
aF-0.20000000298023224
aF-0.20000000298023224
aF-0.20000000298023224
aF-0.20000000298023224
aF-0.20000000298023224
aF-0.20000000298023224
aF-0.20000000298023224
aF-0.20000000298023224
aF-0.20000000298023224
aF-0.20000000298023224
aF-0.20000000298023224
aF-0.20000000298023224
aF-0.20000000298023224
aF-0.20000000298023224
aF-0.20000000298023224
aF-0.20000000298023224
aF-0.20000000298023224
aF-0.20000000298023224
aF-0.20000000298023224
aF-0.20000000298023224
aF-0.20000000298023224
aF-0.20000000298023224
aF-0.20000000298023224
aF-0.20000000298023224
aF-0.20000000298023224
aF-0.20000000298023224
aF-0.20000000298023224
aF-0.20000000298023224
aF-0.20000000298023224
aF-0.20000000298023224
aF-0.20000000298023224
aF-0.20000000298023224
aF-0.20000000298023224
aF-0.20000000298023224
aF-0.20000000298023224
aF-0.20000000298023224
aF-0.20000000298023224
aF-0.20000000298023224
aF-0.20000000298023224
aF-0.20000000298023224
aF-0.20000000298023224
aF-0.20000000298023224
aF-0.20000000298023224
aF-0.20000000298023224
aF-0.20000000298023224
aF-0.20000000298023224
aF-0.20000000298023224
aF-0.20000000298023224
aF-0.20000000298023224
aF-0.20000000298023224
aF-0.20000000298023224
aF-0.20000000298023224
aF-0.20000000298023224
aF-0.20000000298023224
aF-0.20000000298023224
aF-0.20000000298023224
aF-0.20000000298023224
aF-0.20000000298023224
aF-0.20000000298023224
aF-0.20000000298023224
aF-0.20000000298023224
aF-0.20000000298023224
aF-0.20000000298023224
aF-0.20000000298023224
aF-0.20000000298023224
aF-0.20000000298023224
aF-0.20000000298023224
aF-0.20000000298023224
aF-0.20000000298023224
aF-0.20000000298023224
aF-0.20000000298023224
aF-0.20000000298023224
aF-0.20000000298023224
aF-0.20000000298023224
aF-0.20000000298023224
aF-0.20000000298023224
aF-0.20000000298023224
aF-0.20000000298023224
aF-0.20000000298023224
aF-0.20000000298023224
aF-0.20000000298023224
aF-0.20000000298023224
aF-0.20000000298023224
aF-0.20000000298023224
aF-0.20000000298023224
aF-0.20000000298023224
aF-0.20000000298023224
aF-0.20000000298023224
aF-0.20000000298023224
aF-0.20000000298023224
aF-0.20000000298023224
aF-0.20000000298023224
aF-0.20000000298023224
aF-0.20000000298023224
aF-0.20000000298023224
aF-0.20000000298023224
aF-0.20000000298023224
aF-0.20000000298023224
aF-0.20000000298023224
aF-0.20000000298023224
aF-0.20000000298023224
aF-0.20000000298023224
aF-0.20000000298023224
aF-0.20000000298023224
aF-0.20000000298023224
aF-0.20000000298023224
aF-0.20000000298023224
aF-0.20000000298023224
aF-0.20000000298023224
aF-0.20000000298023224
aF-0.20000000298023224
aF-0.20000000298023224
aF-0.20000000298023224
aF-0.20000000298023224
aF-0.20000000298023224
aF-0.20000000298023224
aF-0.20000000298023224
aF-0.20000000298023224
aF-0.20000000298023224
aF-0.20000000298023224
aF-0.20000000298023224
aF-0.20000000298023224
aF-0.20000000298023224
aF-0.20000000298023224
aF-0.20000000298023224
aF-0.20000000298023224
aF-0.20000000298023224
aF-0.20000000298023224
aF-0.20000000298023224
aF-0.20000000298023224
aF-0.20000000298023224
aF-0.20000000298023224
aF-0.20000000298023224
aF-0.20000000298023224
aF-0.20000000298023224
aF-0.20000000298023224
aF-0.20000000298023224
aF-0.20000000298023224
aF-0.20000000298023224
aF-0.20000000298023224
aF-0.20000000298023224
aF-0.20000000298023224
aF-0.20000000298023224
aF-0.20000000298023224
aF-0.20000000298023224
aF-0.20000000298023224
aF-0.20000000298023224
aF-0.20000000298023224
aF-0.20000000298023224
aF-0.20000000298023224
aF-0.20000000298023224
aF-0.20000000298023224
aF-0.20000000298023224
aF-0.20000000298023224
aF-0.20000000298023224
aF-0.20000000298023224
aF-0.20000000298023224
aF-0.20000000298023224
aF-0.20000000298023224
aF-0.20000000298023224
aF-0.20000000298023224
aF-0.20000000298023224
aF-0.20000000298023224
aF-0.20000000298023224
aF-0.20000000298023224
aF-0.20000000298023224
aF-0.20000000298023224
aF-0.20000000298023224
aF-0.20000000298023224
aF-0.20000000298023224
aF-0.20000000298023224
aF-0.20000000298023224
aF-0.20000000298023224
aF-0.20000000298023224
aF-0.20000000298023224
aF-0.20000000298023224
aF-0.20000000298023224
aF-0.20000000298023224
aF-0.20000000298023224
aF-0.20000000298023224
aF-0.20000000298023224
aF-0.20000000298023224
aF-0.20000000298023224
aF-0.20000000298023224
aF-0.20000000298023224
aF-0.20000000298023224
aF-0.20000000298023224
aF-0.20000000298023224
aF-0.20000000298023224
aF-0.20000000298023224
aF-0.20000000298023224
aF-0.20000000298023224
aF-0.20000000298023224
aF-0.20000000298023224
aF-0.20000000298023224
aF-0.20000000298023224
aF-0.20000000298023224
aF-0.20000000298023224
aF-0.20000000298023224
aF-0.20000000298023224
aF-0.20000000298023224
aF-0.20000000298023224
aF-0.20000000298023224
aF-0.20000000298023224
aF-0.20000000298023224
aF-0.20000000298023224
aF-0.20000000298023224
aF-0.20000000298023224
aF-0.20000000298023224
aF-0.20000000298023224
aF-0.20000000298023224
aF-0.20000000298023224
aF-0.20000000298023224
aF-0.20000000298023224
aF-0.20000000298023224
aF-0.20000000298023224
aF-0.20000000298023224
aF-0.20000000298023224
aF-0.20000000298023224
aF-0.20000000298023224
aF-0.20000000298023224
aF-0.20000000298023224
aF-0.20000000298023224
aF-0.20000000298023224
aF-0.20000000298023224
aF-0.20000000298023224
aF-0.20000000298023224
aF-0.20000000298023224
aF-0.20000000298023224
aF-0.20000000298023224
aF-0.20000000298023224
aF-0.20000000298023224
aF-0.20000000298023224
aF-0.20000000298023224
aF-0.20000000298023224
aF-0.20000000298023224
aF-0.20000000298023224
aF-0.20000000298023224
aF-0.20000000298023224
aF-0.20000000298023224
aF-0.20000000298023224
aF-0.20000000298023224
aF-0.20000000298023224
aF-0.20000000298023224
aF-0.20000000298023224
aF-0.20000000298023224
aF-0.20000000298023224
aF-0.20000000298023224
aF-0.20000000298023224
aF-0.20000000298023224
aF-0.20000000298023224
aF-0.20000000298023224
aF-0.20000000298023224
aF-0.20000000298023224
aF-0.20000000298023224
aF-0.20000000298023224
aF-0.20000000298023224
aF-0.20000000298023224
aF-0.20000000298023224
aF-0.20000000298023224
aF-0.20000000298023224
aF-0.20000000298023224
aF-0.20000000298023224
aF-0.20000000298023224
aF-0.20000000298023224
aF-0.20000000298023224
aF-0.20000000298023224
aF-0.20000000298023224
aF-0.20000000298023224
aF-0.20000000298023224
aF-0.20000000298023224
aF-0.20000000298023224
aF-0.20000000298023224
aF-0.20000000298023224
aF-0.20000000298023224
aF-0.20000000298023224
aF-0.20000000298023224
aF-0.20000000298023224
aF-0.20000000298023224
aF-0.20000000298023224
aF-0.20000000298023224
aF-0.20000000298023224
aF-0.20000000298023224
aF-0.20000000298023224
aF-0.20000000298023224
aF-0.20000000298023224
aF-0.20000000298023224
aF-0.20000000298023224
aF-0.20000000298023224
aF-0.20000000298023224
aF-0.20000000298023224
aF-0.20000000298023224
aF-0.20000000298023224
aF-0.20000000298023224
aF-0.20000000298023224
aF-0.20000000298023224
aF-0.20000000298023224
aF-0.20000000298023224
aF-0.20000000298023224
aF-0.20000000298023224
aF-0.20000000298023224
aF-0.20000000298023224
aF-0.20000000298023224
aF-0.20000000298023224
aF-0.20000000298023224
aF-0.20000000298023224
aF-0.20000000298023224
aF-0.20000000298023224
aF-0.20000000298023224
aF-0.20000000298023224
aF-0.20000000298023224
aF-0.20000000298023224
aF-0.20000000298023224
aF-0.20000000298023224
aF-0.20000000298023224
aF-0.20000000298023224
aF-0.20000000298023224
aF-0.20000000298023224
aF-0.20000000298023224
aF-0.20000000298023224
aF-0.20000000298023224
aF-0.20000000298023224
aF-0.20000000298023224
aF-0.20000000298023224
aF-0.20000000298023224
aF-0.20000000298023224
aF-0.20000000298023224
aF-0.20000000298023224
aF-0.20000000298023224
aF-0.20000000298023224
aF-0.20000000298023224
aF-0.20000000298023224
aF-0.20000000298023224
aF-0.20000000298023224
aF-0.20000000298023224
aF-0.20000000298023224
aF-0.20000000298023224
aF-0.20000000298023224
aF-0.20000000298023224
aF-0.20000000298023224
aF-0.20000000298023224
aF-0.20000000298023224
aF-0.20000000298023224
aF-0.20000000298023224
aF-0.20000000298023224
aF-0.20000000298023224
aF-0.20000000298023224
aF-0.20000000298023224
aF-0.20000000298023224
aF-0.20000000298023224
aF-0.20000000298023224
aF-0.20000000298023224
aF-0.20000000298023224
aF-0.20000000298023224
aF-0.20000000298023224
aF-0.20000000298023224
aF-0.20000000298023224
aF-0.20000000298023224
aF-0.20000000298023224
aF-0.20000000298023224
aF-0.20000000298023224
aF-0.20000000298023224
aF-0.20000000298023224
aF-0.20000000298023224
aF-0.20000000298023224
aF-0.20000000298023224
aF-0.20000000298023224
aF-0.20000000298023224
aF-0.20000000298023224
aF-0.20000000298023224
aF-0.20000000298023224
aF-0.20000000298023224
aF-0.20000000298023224
aF-0.20000000298023224
aF-0.20000000298023224
aF-0.20000000298023224
aF-0.20000000298023224
aF-0.20000000298023224
aF-0.20000000298023224
aF-0.20000000298023224
aF-0.20000000298023224
aF-0.20000000298023224
aF-0.20000000298023224
aF-0.20000000298023224
aF-0.20000000298023224
aF-0.20000000298023224
aF-0.20000000298023224
aF-0.20000000298023224
aF-0.20000000298023224
aF-0.20000000298023224
aF-0.20000000298023224
aF-0.20000000298023224
aF-0.20000000298023224
aF-0.20000000298023224
aF-0.20000000298023224
aF-0.20000000298023224
aF-0.20000000298023224
aF-0.20000000298023224
aF-0.20000000298023224
aF-0.20000000298023224
aF-0.20000000298023224
aF-0.20000000298023224
aF-0.20000000298023224
aF-0.20000000298023224
aF-0.20000000298023224
aF-0.20000000298023224
aF-0.20000000298023224
aF-0.20000000298023224
aF-0.20000000298023224
aF-0.20000000298023224
aF-0.20000000298023224
aF-0.20000000298023224
aF-0.20000000298023224
aF-0.20000000298023224
aF-0.20000000298023224
aF-0.20000000298023224
aF-0.20000000298023224
aF-0.20000000298023224
aF-0.20000000298023224
aF-0.20000000298023224
aF-0.20000000298023224
aF-0.20000000298023224
aF-0.20000000298023224
aF-0.20000000298023224
aF-0.20000000298023224
aF-0.20000000298023224
aF-0.20000000298023224
aF-0.20000000298023224
aF-0.20000000298023224
aF-0.20000000298023224
aF-0.20000000298023224
aF-0.20000000298023224
aF-0.20000000298023224
aF-0.20000000298023224
aF-0.20000000298023224
aF-0.20000000298023224
aF-0.20000000298023224
aF-0.20000000298023224
aF-0.20000000298023224
aF-0.20000000298023224
aF-0.20000000298023224
aF-0.20000000298023224
aF-0.20000000298023224
aF-0.20000000298023224
aF-0.20000000298023224
aF-0.20000000298023224
aF-0.20000000298023224
aF-0.20000000298023224
aF-0.20000000298023224
aF-0.20000000298023224
aF-0.20000000298023224
aF-0.20000000298023224
aF-0.20000000298023224
aF-0.20000000298023224
aF-0.20000000298023224
aF-0.20000000298023224
aF-0.20000000298023224
aF-0.20000000298023224
aF-0.20000000298023224
aF-0.20000000298023224
aF-0.20000000298023224
aF-0.20000000298023224
aF-0.20000000298023224
aF-0.20000000298023224
aF-0.20000000298023224
aF-0.20000000298023224
aF-0.20000000298023224
aF-0.20000000298023224
aF-0.20000000298023224
aF-0.20000000298023224
aF-0.20000000298023224
aF-0.20000000298023224
aF-0.20000000298023224
aF-0.20000000298023224
aF-0.20000000298023224
aF-0.20000000298023224
aF-0.20000000298023224
aF-0.20000000298023224
aF-0.20000000298023224
aF-0.20000000298023224
aF-0.20000000298023224
aF-0.20000000298023224
aF-0.20000000298023224
aF-0.20000000298023224
aF-0.20000000298023224
aF-0.20000000298023224
aF-0.20000000298023224
aF-0.20000000298023224
aF-0.20000000298023224
aF-0.20000000298023224
aF-0.20000000298023224
aF-0.20000000298023224
aF-0.20000000298023224
aF-0.20000000298023224
aF-0.20000000298023224
aF-0.20000000298023224
aF-0.20000000298023224
aF-0.20000000298023224
aF-0.20000000298023224
aF-0.20000000298023224
aF-0.20000000298023224
aF-0.20000000298023224
aF-0.20000000298023224
aF-0.20000000298023224
aF-0.20000000298023224
aF-0.20000000298023224
aF-0.20000000298023224
aF-0.20000000298023224
aF-0.20000000298023224
aF-0.20000000298023224
aF-0.20000000298023224
aF-0.20000000298023224
aF-0.20000000298023224
aF-0.20000000298023224
aF-0.20000000298023224
aF-0.20000000298023224
aF-0.20000000298023224
aF-0.20000000298023224
aF-0.20000000298023224
aF-0.20000000298023224
aF-0.20000000298023224
aF-0.20000000298023224
aF-0.20000000298023224
aF-0.20000000298023224
aF-0.20000000298023224
aF-0.20000000298023224
aF-0.20000000298023224
aF-0.20000000298023224
aF-0.20000000298023224
aF-0.20000000298023224
aF-0.20000000298023224
aF-0.20000000298023224
aF-0.20000000298023224
aF-0.20000000298023224
aF-0.20000000298023224
aF-0.20000000298023224
aF-0.20000000298023224
aF-0.20000000298023224
aF-0.20000000298023224
aF-0.20000000298023224
aF-0.20000000298023224
aF-0.20000000298023224
aF-0.20000000298023224
aF-0.20000000298023224
aF-0.20000000298023224
aF-0.20000000298023224
aF-0.20000000298023224
aF-0.20000000298023224
aF-0.20000000298023224
aF-0.20000000298023224
aF-0.20000000298023224
aF-0.20000000298023224
aF-0.20000000298023224
aF-0.20000000298023224
aF-0.20000000298023224
aF-0.20000000298023224
aF-0.20000000298023224
aF-0.20000000298023224
aF-0.20000000298023224
aF-0.20000000298023224
aF-0.20000000298023224
aF-0.20000000298023224
aF-0.20000000298023224
aF-0.20000000298023224
aF-0.20000000298023224
aF-0.20000000298023224
aF-0.20000000298023224
aF-0.20000000298023224
aF-0.20000000298023224
aF-0.20000000298023224
aF-0.20000000298023224
aF-0.20000000298023224
aF-0.20000000298023224
aF-0.20000000298023224
aF-0.20000000298023224
aF-0.20000000298023224
aF-0.20000000298023224
aF-0.20000000298023224
aF-0.20000000298023224
aF-0.20000000298023224
aF-0.20000000298023224
aF-0.20000000298023224
aF-0.20000000298023224
aF-0.20000000298023224
aF-0.20000000298023224
aF-0.20000000298023224
aF-0.20000000298023224
aF-0.20000000298023224
aF-0.20000000298023224
aF-0.20000000298023224
aF-0.20000000298023224
aF-0.20000000298023224
aF-0.20000000298023224
aF-0.20000000298023224
aF-0.20000000298023224
aF-0.20000000298023224
aF-0.20000000298023224
aF-0.20000000298023224
aF-0.20000000298023224
aF-0.20000000298023224
aF-0.20000000298023224
aF-0.20000000298023224
aF-0.20000000298023224
aF-0.20000000298023224
aF-0.20000000298023224
aF-0.20000000298023224
aF-0.20000000298023224
aF-0.20000000298023224
aF-0.20000000298023224
aF-0.20000000298023224
aF-0.20000000298023224
aF-0.20000000298023224
aF-0.20000000298023224
aF-0.20000000298023224
aF-0.20000000298023224
aF-0.20000000298023224
aF-0.20000000298023224
aF-0.20000000298023224
aF-0.20000000298023224
aF-0.20000000298023224
aF-0.20000000298023224
aF-0.20000000298023224
aF-0.20000000298023224
aF-0.20000000298023224
aF-0.20000000298023224
aF-0.20000000298023224
aF-0.20000000298023224
aF-0.20000000298023224
aF-0.20000000298023224
aF-0.20000000298023224
aF-0.20000000298023224
aF-0.20000000298023224
aF-0.20000000298023224
aF-0.20000000298023224
aF-0.20000000298023224
aF-0.20000000298023224
aF-0.20000000298023224
aF-0.20000000298023224
aF-0.20000000298023224
aF-0.20000000298023224
aF-0.20000000298023224
aF-0.20000000298023224
aF-0.20000000298023224
aF-0.20000000298023224
aF-0.20000000298023224
aF-0.20000000298023224
aF-0.20000000298023224
aF-0.20000000298023224
aF-0.20000000298023224
aF-0.20000000298023224
aF-0.20000000298023224
aF-0.20000000298023224
aF-0.20000000298023224
aF-0.20000000298023224
aF-0.20000000298023224
aF-0.20000000298023224
aF-0.20000000298023224
aF-0.20000000298023224
aF-0.20000000298023224
aF-0.20000000298023224
aF-0.20000000298023224
aF-0.20000000298023224
aF-0.20000000298023224
aF-0.20000000298023224
aF-0.20000000298023224
aF-0.20000000298023224
aF-0.20000000298023224
aF-0.20000000298023224
aF-0.20000000298023224
aF-0.20000000298023224
aF-0.20000000298023224
aF-0.20000000298023224
aF-0.20000000298023224
aF-0.20000000298023224
aF-0.20000000298023224
aF-0.20000000298023224
aF-0.20000000298023224
aF-0.20000000298023224
aF-0.20000000298023224
aF-0.20000000298023224
aF-0.20000000298023224
aF-0.20000000298023224
aF-0.20000000298023224
aF-0.20000000298023224
aF-0.20000000298023224
aF-0.20000000298023224
aF-0.20000000298023224
aF-0.20000000298023224
aF-0.20000000298023224
aF-0.20000000298023224
aF-0.20000000298023224
aF-0.20000000298023224
aF-0.20000000298023224
aF-0.20000000298023224
aF-0.20000000298023224
aF-0.20000000298023224
aF-0.20000000298023224
aF-0.20000000298023224
aF-0.20000000298023224
aF-0.20000000298023224
aF-0.20000000298023224
aF-0.20000000298023224
aF-0.20000000298023224
aF-0.20000000298023224
aF-0.20000000298023224
aF-0.20000000298023224
aF-0.20000000298023224
aF-0.20000000298023224
aF-0.20000000298023224
aF-0.20000000298023224
aF-0.20000000298023224
aF-0.20000000298023224
aF-0.20000000298023224
aF-0.20000000298023224
aF-0.20000000298023224
aF-0.20000000298023224
aF-0.20000000298023224
aF-0.20000000298023224
aF-0.20000000298023224
aF-0.20000000298023224
aF5.378180980682373
aF7.80888032913208
aF10.24345588684082
aF12.682401657104492
aF15.11367416381836
aF17.603158950805664
aF20.146472930908203
aF22.748931884765625
aF25.340543746948242
aF27.815210342407227
aF30.28987693786621
aF36.0269660949707
aF38.25510787963867
aF40.46578598022461
aF42.58852005004883
aF44.616397857666016
aF46.57440948486328
aF48.43516159057617
aF50.20476531982422
aF51.882652282714844
aF55.68159103393555
aF57.16912841796875
aF58.573909759521484
aF59.887786865234375
aF61.109580993652344
aF62.240352630615234
aF63.27946090698242
aF64.22500610351562
aF65.07860565185547
aF65.84178161621094
aF68.0504150390625
aF68.61856079101562
aF69.11442565917969
aF69.50679016113281
aF69.80809783935547
aF70.0167465209961
aF70.13335418701172
aF70.15766906738281
aF70.08685302734375
aF69.93232727050781
aF70.0119857788086
aF69.6635513305664
aF69.22091674804688
aF68.6846923828125
aF68.04664611816406
aF67.31493377685547
aF66.50006103515625
aF65.58988952636719
aF64.58534240722656
aF63.487857818603516
aF61.79466247558594
aF60.5001106262207
aF59.12052536010742
aF57.656707763671875
aF56.078880310058594
aF54.416358947753906
aF52.65989685058594
aF50.80875778198242
aF48.8719596862793
aF46.84027099609375
aF42.0805549621582
aF39.85905456542969
aF37.53310012817383
aF35.611854553222656
aF33.58574295043945
aF31.483291625976562
aF29.276203155517578
aF26.973785400390625
aF24.582801818847656
aF22.106460571289062
aF17.479625701904297
aF14.841292381286621
aF12.127484321594238
aF9.340301513671875
aF6.480447769165039
aF3.569314956665039
aF0.6028392910957336
aF-2.3890042304992676
aF2.717123508453369
aF-0.22801075875759125
aF2.700758218765259
aF-0.17285756766796112
aF2.693260431289673
aF-0.1406341791152954
aF2.681826114654541
aF-0.11207561939954758
aF2.6699187755584717
aF-0.1005675345659256
aF2.658644199371338
aF-0.08026187121868134
aF2.6441447734832764
aF-0.043994322419166565
aF2.6364166736602783
aF-0.002208701567724347
aF2.626016855239868
aF0.025551453232765198
aF-2.558112144470215
aF2.609261989593506
aF0.07415255904197693
aF-2.4528114795684814
aF2.59006404876709
aF0.07159996777772903
aF-2.430036783218384
aF2.5778932571411133
aF0.08434940874576569
aF-2.392457962036133
aF2.5621254444122314
aF0.09319845587015152
aF-2.3623218536376953
aF2.546494960784912
aF-0.30623355507850647
aF2.536194324493408
aF0.1680622547864914
aF-2.180098533630371
aF2.520439386367798
aF0.2297651469707489
aF-2.0355305671691895
aF2.5059759616851807
aF0.2932939827442169
aF-1.9156771898269653
aF2.48831844329834
aF0.29859495162963867
aF-1.8886054754257202
aF2.4766359329223633
aF0.3082154095172882
aF-1.8577454090118408
aF2.462610960006714
aF0.3152374029159546
aF-1.8243610858917236
aF2.44821834564209
aF0.08713050186634064
aF-2.002345561981201
aF2.433535099029541
aF0.36253318190574646
aF-1.7064181566238403
aF2.419454574584961
aF0.3889026939868927
aF-1.629643201828003
aF2.405089855194092
aF0.4397805631160736
aF-1.7257342338562012
aF2.391894578933716
aF0.4925771653652191
aF-1.3953336477279663
aF2.378462076187134
aF0.5361924171447754
aF-1.2841918468475342
aF2.3652539253234863
aF0.5848703384399414
aF-1.1935702562332153
aF2.347493886947632
aF0.5956661105155945
aF-1.146539330482483
aF2.3393616676330566
aF0.644992470741272
aF-0.5443363785743713
aF2.8266870975494385
aF1.6533396244049072
aF0.4823734164237976
aF-0.6717047691345215
aF2.8066225051879883
aF1.6630804538726807
aF0.5486387014389038
aF-0.5502226948738098
aF2.7934646606445312
aF1.7377489805221558
aF0.6972327828407288
aF-0.32919153571128845
aF2.7773571014404297
aF1.7918894290924072
aF2.025502920150757
aF1.076654314994812
aF0.1295185536146164
aF-0.8160786032676697
aF2.7534053325653076
aF1.8365763425827026
aF0.9337931275367737
aF0.057377345860004425
aF-0.8036282658576965
aF2.735002279281616
aF3.169109582901001
aF2.348337173461914
aF1.5306053161621094
aF0.7125949263572693
aF-0.11000803112983704
aF2.7121307849884033
aF1.9147685766220093
aF1.1248608827590942
aF0.3404441773891449
aF-0.4356857240200043
aF-0.0113313477486372
aF2.690033197402954
aF1.9602630138397217
aF1.2430832386016846
aF0.5408806800842285
aF-0.14358529448509216
aF2.672070264816284
aF2.0025901794433594
aF1.348824381828308
aF0.6957128643989563
aF1.7105096578598022
aF1.0666476488113403
aF0.4277826249599457
aF-0.21015848219394684
aF2.644351005554199
aF2.0130739212036133
aF1.3908227682113647
aF0.7692206501960754
aF0.1495094746351242
aF-0.46513235569000244
aF0.35034412145614624
aF-0.24112871289253235
aF2.616793632507324
aF2.064305305480957
aF1.523878574371338
aF0.981884777545929
aF0.45179304480552673
aF-0.07892126590013504
aF2.5963616371154785
aF2.0926575660705566
aF3.4430384635925293
aF2.954855442047119
aF2.4627110958099365
aF1.9750927686691284
aF1.4832514524459839
aF0.9945886135101318
aF0.5050520896911621
aF0.022751057520508766
aF-0.4512892961502075
aF2.560708999633789
aF2.43367075920105
aF1.9936460256576538
aF1.550045132637024
aF1.102564811706543
aF0.6630673408508301
aF0.2272883653640747
aF-0.2061208337545395
aF2.5348620414733887
aF2.1158838272094727
aF1.7008814811706543
aF3.0463948249816895
aF2.6285288333892822
aF2.210322618484497
aF1.804248332977295
aF1.3984744548797607
aF0.9957920908927917
aF0.6007845401763916
aF0.7054848074913025
aF0.8125020861625671
aF0.9366101026535034
aF3.305270195007324
aF3.436314582824707
aF3.5708205699920654
aF3.697906494140625
aF3.816481828689575
aF3.936117172241211
aF4.0496697425842285
aF4.152763366699219
aF4.2510833740234375
aF4.337372303009033
aF6.537494659423828
aF6.600881099700928
aF6.646157741546631
aF6.667811870574951
aF6.6710944175720215
aF6.649385929107666
aF6.609030723571777
aF6.555004596710205
aF6.477167129516602
aF6.381221771240234
aF8.03900146484375
aF7.899661540985107
aF7.729536533355713
aF7.5392937660217285
aF7.318599224090576
aF7.069643020629883
aF6.803062915802002
aF6.5087738037109375
aF6.189538955688477
aF5.85827112197876
aF7.007205486297607
aF6.631855010986328
aF6.242427349090576
aF5.8397536277771
aF5.4231390953063965
aF4.993278503417969
aF4.544676780700684
aF4.077033042907715
aF3.6011083126068115
aF3.120328187942505
aF4.699843406677246
aF4.211661338806152
aF3.7183821201324463
aF3.2192485332489014
aF2.726712942123413
aF2.228592872619629
aF1.7243106365203857
aF1.226062536239624
aF0.7275140285491943
aF0.2358739674091339
aF1.067176103591919
aF0.5933886170387268
aF0.12780989706516266
aF-0.3164842128753662
aF2.813199758529663
aF2.3918306827545166
aF1.9912889003753662
aF1.6022074222564697
aF1.2187817096710205
aF0.840622067451477
aF1.7252449989318848
aF1.3601250648498535
aF1.0126667022705078
aF0.6704813241958618
aF0.3328842520713806
aF0.015300123021006584
aF-0.2919716238975525
aF2.7702622413635254
aF2.479363203048706
aF2.184535026550293
aF3.989870548248291
aF3.689995050430298
aF3.396188259124756
aF3.099971294403076
aF2.813971757888794
aF2.522052764892578
aF2.2235758304595947
aF1.930472731590271
aF1.6342419385910034
aF1.3366847038269043
aF3.2324411869049072
aF2.9467084407806396
aF2.66650128364563
aF2.3935952186584473
aF2.1219875812530518
aF1.8510414361953735
aF1.5891929864883423
aF1.3244115114212036
aF1.0592319965362549
aF1.3049297332763672
aF3.354875087738037
aF3.604590654373169
a.